
bomb:     file format elf32-i386


Disassembly of section .init:

00001000 <_init>:
    1000:	f3 0f 1e fb          	endbr32 
    1004:	53                   	push   %ebx
    1005:	83 ec 08             	sub    $0x8,%esp
    1008:	e8 03 04 00 00       	call   1410 <__x86.get_pc_thunk.bx>
    100d:	81 c3 63 4f 00 00    	add    $0x4f63,%ebx
    1013:	8b 83 84 00 00 00    	mov    0x84(%ebx),%eax
    1019:	85 c0                	test   %eax,%eax
    101b:	74 02                	je     101f <_init+0x1f>
    101d:	ff d0                	call   *%eax
    101f:	83 c4 08             	add    $0x8,%esp
    1022:	5b                   	pop    %ebx
    1023:	c3                   	ret    

Disassembly of section .plt:

00001030 <.plt>:
    1030:	ff b3 04 00 00 00    	pushl  0x4(%ebx)
    1036:	ff a3 08 00 00 00    	jmp    *0x8(%ebx)
    103c:	0f 1f 40 00          	nopl   0x0(%eax)
    1040:	f3 0f 1e fb          	endbr32 
    1044:	68 00 00 00 00       	push   $0x0
    1049:	e9 e2 ff ff ff       	jmp    1030 <.plt>
    104e:	66 90                	xchg   %ax,%ax
    1050:	f3 0f 1e fb          	endbr32 
    1054:	68 08 00 00 00       	push   $0x8
    1059:	e9 d2 ff ff ff       	jmp    1030 <.plt>
    105e:	66 90                	xchg   %ax,%ax
    1060:	f3 0f 1e fb          	endbr32 
    1064:	68 10 00 00 00       	push   $0x10
    1069:	e9 c2 ff ff ff       	jmp    1030 <.plt>
    106e:	66 90                	xchg   %ax,%ax
    1070:	f3 0f 1e fb          	endbr32 
    1074:	68 18 00 00 00       	push   $0x18
    1079:	e9 b2 ff ff ff       	jmp    1030 <.plt>
    107e:	66 90                	xchg   %ax,%ax
    1080:	f3 0f 1e fb          	endbr32 
    1084:	68 20 00 00 00       	push   $0x20
    1089:	e9 a2 ff ff ff       	jmp    1030 <.plt>
    108e:	66 90                	xchg   %ax,%ax
    1090:	f3 0f 1e fb          	endbr32 
    1094:	68 28 00 00 00       	push   $0x28
    1099:	e9 92 ff ff ff       	jmp    1030 <.plt>
    109e:	66 90                	xchg   %ax,%ax
    10a0:	f3 0f 1e fb          	endbr32 
    10a4:	68 30 00 00 00       	push   $0x30
    10a9:	e9 82 ff ff ff       	jmp    1030 <.plt>
    10ae:	66 90                	xchg   %ax,%ax
    10b0:	f3 0f 1e fb          	endbr32 
    10b4:	68 38 00 00 00       	push   $0x38
    10b9:	e9 72 ff ff ff       	jmp    1030 <.plt>
    10be:	66 90                	xchg   %ax,%ax
    10c0:	f3 0f 1e fb          	endbr32 
    10c4:	68 40 00 00 00       	push   $0x40
    10c9:	e9 62 ff ff ff       	jmp    1030 <.plt>
    10ce:	66 90                	xchg   %ax,%ax
    10d0:	f3 0f 1e fb          	endbr32 
    10d4:	68 48 00 00 00       	push   $0x48
    10d9:	e9 52 ff ff ff       	jmp    1030 <.plt>
    10de:	66 90                	xchg   %ax,%ax
    10e0:	f3 0f 1e fb          	endbr32 
    10e4:	68 50 00 00 00       	push   $0x50
    10e9:	e9 42 ff ff ff       	jmp    1030 <.plt>
    10ee:	66 90                	xchg   %ax,%ax
    10f0:	f3 0f 1e fb          	endbr32 
    10f4:	68 58 00 00 00       	push   $0x58
    10f9:	e9 32 ff ff ff       	jmp    1030 <.plt>
    10fe:	66 90                	xchg   %ax,%ax
    1100:	f3 0f 1e fb          	endbr32 
    1104:	68 60 00 00 00       	push   $0x60
    1109:	e9 22 ff ff ff       	jmp    1030 <.plt>
    110e:	66 90                	xchg   %ax,%ax
    1110:	f3 0f 1e fb          	endbr32 
    1114:	68 68 00 00 00       	push   $0x68
    1119:	e9 12 ff ff ff       	jmp    1030 <.plt>
    111e:	66 90                	xchg   %ax,%ax
    1120:	f3 0f 1e fb          	endbr32 
    1124:	68 70 00 00 00       	push   $0x70
    1129:	e9 02 ff ff ff       	jmp    1030 <.plt>
    112e:	66 90                	xchg   %ax,%ax
    1130:	f3 0f 1e fb          	endbr32 
    1134:	68 78 00 00 00       	push   $0x78
    1139:	e9 f2 fe ff ff       	jmp    1030 <.plt>
    113e:	66 90                	xchg   %ax,%ax
    1140:	f3 0f 1e fb          	endbr32 
    1144:	68 80 00 00 00       	push   $0x80
    1149:	e9 e2 fe ff ff       	jmp    1030 <.plt>
    114e:	66 90                	xchg   %ax,%ax
    1150:	f3 0f 1e fb          	endbr32 
    1154:	68 88 00 00 00       	push   $0x88
    1159:	e9 d2 fe ff ff       	jmp    1030 <.plt>
    115e:	66 90                	xchg   %ax,%ax
    1160:	f3 0f 1e fb          	endbr32 
    1164:	68 90 00 00 00       	push   $0x90
    1169:	e9 c2 fe ff ff       	jmp    1030 <.plt>
    116e:	66 90                	xchg   %ax,%ax
    1170:	f3 0f 1e fb          	endbr32 
    1174:	68 98 00 00 00       	push   $0x98
    1179:	e9 b2 fe ff ff       	jmp    1030 <.plt>
    117e:	66 90                	xchg   %ax,%ax
    1180:	f3 0f 1e fb          	endbr32 
    1184:	68 a0 00 00 00       	push   $0xa0
    1189:	e9 a2 fe ff ff       	jmp    1030 <.plt>
    118e:	66 90                	xchg   %ax,%ax
    1190:	f3 0f 1e fb          	endbr32 
    1194:	68 a8 00 00 00       	push   $0xa8
    1199:	e9 92 fe ff ff       	jmp    1030 <.plt>
    119e:	66 90                	xchg   %ax,%ax
    11a0:	f3 0f 1e fb          	endbr32 
    11a4:	68 b0 00 00 00       	push   $0xb0
    11a9:	e9 82 fe ff ff       	jmp    1030 <.plt>
    11ae:	66 90                	xchg   %ax,%ax
    11b0:	f3 0f 1e fb          	endbr32 
    11b4:	68 b8 00 00 00       	push   $0xb8
    11b9:	e9 72 fe ff ff       	jmp    1030 <.plt>
    11be:	66 90                	xchg   %ax,%ax
    11c0:	f3 0f 1e fb          	endbr32 
    11c4:	68 c0 00 00 00       	push   $0xc0
    11c9:	e9 62 fe ff ff       	jmp    1030 <.plt>
    11ce:	66 90                	xchg   %ax,%ax
    11d0:	f3 0f 1e fb          	endbr32 
    11d4:	68 c8 00 00 00       	push   $0xc8
    11d9:	e9 52 fe ff ff       	jmp    1030 <.plt>
    11de:	66 90                	xchg   %ax,%ax
    11e0:	f3 0f 1e fb          	endbr32 
    11e4:	68 d0 00 00 00       	push   $0xd0
    11e9:	e9 42 fe ff ff       	jmp    1030 <.plt>
    11ee:	66 90                	xchg   %ax,%ax
    11f0:	f3 0f 1e fb          	endbr32 
    11f4:	68 d8 00 00 00       	push   $0xd8
    11f9:	e9 32 fe ff ff       	jmp    1030 <.plt>
    11fe:	66 90                	xchg   %ax,%ax

Disassembly of section .plt.got:

00001200 <__cxa_finalize@plt>:
    1200:	f3 0f 1e fb          	endbr32 
    1204:	ff a3 80 00 00 00    	jmp    *0x80(%ebx)
    120a:	66 0f 1f 44 00 00    	nopw   0x0(%eax,%eax,1)

Disassembly of section .plt.sec:

00001210 <read@plt>:
    1210:	f3 0f 1e fb          	endbr32 
    1214:	ff a3 0c 00 00 00    	jmp    *0xc(%ebx)
    121a:	66 0f 1f 44 00 00    	nopw   0x0(%eax,%eax,1)

00001220 <fflush@plt>:
    1220:	f3 0f 1e fb          	endbr32 
    1224:	ff a3 10 00 00 00    	jmp    *0x10(%ebx)
    122a:	66 0f 1f 44 00 00    	nopw   0x0(%eax,%eax,1)

00001230 <fgets@plt>:
    1230:	f3 0f 1e fb          	endbr32 
    1234:	ff a3 14 00 00 00    	jmp    *0x14(%ebx)
    123a:	66 0f 1f 44 00 00    	nopw   0x0(%eax,%eax,1)

00001240 <signal@plt>:
    1240:	f3 0f 1e fb          	endbr32 
    1244:	ff a3 18 00 00 00    	jmp    *0x18(%ebx)
    124a:	66 0f 1f 44 00 00    	nopw   0x0(%eax,%eax,1)

00001250 <sleep@plt>:
    1250:	f3 0f 1e fb          	endbr32 
    1254:	ff a3 1c 00 00 00    	jmp    *0x1c(%ebx)
    125a:	66 0f 1f 44 00 00    	nopw   0x0(%eax,%eax,1)

00001260 <alarm@plt>:
    1260:	f3 0f 1e fb          	endbr32 
    1264:	ff a3 20 00 00 00    	jmp    *0x20(%ebx)
    126a:	66 0f 1f 44 00 00    	nopw   0x0(%eax,%eax,1)

00001270 <strcpy@plt>:
    1270:	f3 0f 1e fb          	endbr32 
    1274:	ff a3 24 00 00 00    	jmp    *0x24(%ebx)
    127a:	66 0f 1f 44 00 00    	nopw   0x0(%eax,%eax,1)

00001280 <gethostname@plt>:
    1280:	f3 0f 1e fb          	endbr32 
    1284:	ff a3 28 00 00 00    	jmp    *0x28(%ebx)
    128a:	66 0f 1f 44 00 00    	nopw   0x0(%eax,%eax,1)

00001290 <getenv@plt>:
    1290:	f3 0f 1e fb          	endbr32 
    1294:	ff a3 2c 00 00 00    	jmp    *0x2c(%ebx)
    129a:	66 0f 1f 44 00 00    	nopw   0x0(%eax,%eax,1)

000012a0 <malloc@plt>:
    12a0:	f3 0f 1e fb          	endbr32 
    12a4:	ff a3 30 00 00 00    	jmp    *0x30(%ebx)
    12aa:	66 0f 1f 44 00 00    	nopw   0x0(%eax,%eax,1)

000012b0 <puts@plt>:
    12b0:	f3 0f 1e fb          	endbr32 
    12b4:	ff a3 34 00 00 00    	jmp    *0x34(%ebx)
    12ba:	66 0f 1f 44 00 00    	nopw   0x0(%eax,%eax,1)

000012c0 <__memmove_chk@plt>:
    12c0:	f3 0f 1e fb          	endbr32 
    12c4:	ff a3 38 00 00 00    	jmp    *0x38(%ebx)
    12ca:	66 0f 1f 44 00 00    	nopw   0x0(%eax,%eax,1)

000012d0 <exit@plt>:
    12d0:	f3 0f 1e fb          	endbr32 
    12d4:	ff a3 3c 00 00 00    	jmp    *0x3c(%ebx)
    12da:	66 0f 1f 44 00 00    	nopw   0x0(%eax,%eax,1)

000012e0 <__libc_start_main@plt>:
    12e0:	f3 0f 1e fb          	endbr32 
    12e4:	ff a3 40 00 00 00    	jmp    *0x40(%ebx)
    12ea:	66 0f 1f 44 00 00    	nopw   0x0(%eax,%eax,1)

000012f0 <write@plt>:
    12f0:	f3 0f 1e fb          	endbr32 
    12f4:	ff a3 44 00 00 00    	jmp    *0x44(%ebx)
    12fa:	66 0f 1f 44 00 00    	nopw   0x0(%eax,%eax,1)

00001300 <strcasecmp@plt>:
    1300:	f3 0f 1e fb          	endbr32 
    1304:	ff a3 48 00 00 00    	jmp    *0x48(%ebx)
    130a:	66 0f 1f 44 00 00    	nopw   0x0(%eax,%eax,1)

00001310 <__isoc99_sscanf@plt>:
    1310:	f3 0f 1e fb          	endbr32 
    1314:	ff a3 4c 00 00 00    	jmp    *0x4c(%ebx)
    131a:	66 0f 1f 44 00 00    	nopw   0x0(%eax,%eax,1)

00001320 <fopen@plt>:
    1320:	f3 0f 1e fb          	endbr32 
    1324:	ff a3 50 00 00 00    	jmp    *0x50(%ebx)
    132a:	66 0f 1f 44 00 00    	nopw   0x0(%eax,%eax,1)

00001330 <__errno_location@plt>:
    1330:	f3 0f 1e fb          	endbr32 
    1334:	ff a3 54 00 00 00    	jmp    *0x54(%ebx)
    133a:	66 0f 1f 44 00 00    	nopw   0x0(%eax,%eax,1)

00001340 <__printf_chk@plt>:
    1340:	f3 0f 1e fb          	endbr32 
    1344:	ff a3 58 00 00 00    	jmp    *0x58(%ebx)
    134a:	66 0f 1f 44 00 00    	nopw   0x0(%eax,%eax,1)

00001350 <socket@plt>:
    1350:	f3 0f 1e fb          	endbr32 
    1354:	ff a3 5c 00 00 00    	jmp    *0x5c(%ebx)
    135a:	66 0f 1f 44 00 00    	nopw   0x0(%eax,%eax,1)

00001360 <__fprintf_chk@plt>:
    1360:	f3 0f 1e fb          	endbr32 
    1364:	ff a3 60 00 00 00    	jmp    *0x60(%ebx)
    136a:	66 0f 1f 44 00 00    	nopw   0x0(%eax,%eax,1)

00001370 <gethostbyname@plt>:
    1370:	f3 0f 1e fb          	endbr32 
    1374:	ff a3 64 00 00 00    	jmp    *0x64(%ebx)
    137a:	66 0f 1f 44 00 00    	nopw   0x0(%eax,%eax,1)

00001380 <strtol@plt>:
    1380:	f3 0f 1e fb          	endbr32 
    1384:	ff a3 68 00 00 00    	jmp    *0x68(%ebx)
    138a:	66 0f 1f 44 00 00    	nopw   0x0(%eax,%eax,1)

00001390 <connect@plt>:
    1390:	f3 0f 1e fb          	endbr32 
    1394:	ff a3 6c 00 00 00    	jmp    *0x6c(%ebx)
    139a:	66 0f 1f 44 00 00    	nopw   0x0(%eax,%eax,1)

000013a0 <close@plt>:
    13a0:	f3 0f 1e fb          	endbr32 
    13a4:	ff a3 70 00 00 00    	jmp    *0x70(%ebx)
    13aa:	66 0f 1f 44 00 00    	nopw   0x0(%eax,%eax,1)

000013b0 <__ctype_b_loc@plt>:
    13b0:	f3 0f 1e fb          	endbr32 
    13b4:	ff a3 74 00 00 00    	jmp    *0x74(%ebx)
    13ba:	66 0f 1f 44 00 00    	nopw   0x0(%eax,%eax,1)

000013c0 <__sprintf_chk@plt>:
    13c0:	f3 0f 1e fb          	endbr32 
    13c4:	ff a3 78 00 00 00    	jmp    *0x78(%ebx)
    13ca:	66 0f 1f 44 00 00    	nopw   0x0(%eax,%eax,1)

Disassembly of section .text:

000013d0 <_start>:
    13d0:	f3 0f 1e fb          	endbr32 
    13d4:	31 ed                	xor    %ebp,%ebp
    13d6:	5e                   	pop    %esi
    13d7:	89 e1                	mov    %esp,%ecx
    13d9:	83 e4 f0             	and    $0xfffffff0,%esp
    13dc:	50                   	push   %eax
    13dd:	54                   	push   %esp
    13de:	52                   	push   %edx
    13df:	e8 22 00 00 00       	call   1406 <_start+0x36>
    13e4:	81 c3 8c 4b 00 00    	add    $0x4b8c,%ebx
    13ea:	8d 83 20 cc ff ff    	lea    -0x33e0(%ebx),%eax
    13f0:	50                   	push   %eax
    13f1:	8d 83 b0 cb ff ff    	lea    -0x3450(%ebx),%eax
    13f7:	50                   	push   %eax
    13f8:	51                   	push   %ecx
    13f9:	56                   	push   %esi
    13fa:	ff b3 88 00 00 00    	pushl  0x88(%ebx)
    1400:	e8 db fe ff ff       	call   12e0 <__libc_start_main@plt>
    1405:	f4                   	hlt    
    1406:	8b 1c 24             	mov    (%esp),%ebx
    1409:	c3                   	ret    
    140a:	66 90                	xchg   %ax,%ax
    140c:	66 90                	xchg   %ax,%ax
    140e:	66 90                	xchg   %ax,%ax

00001410 <__x86.get_pc_thunk.bx>:
    1410:	8b 1c 24             	mov    (%esp),%ebx
    1413:	c3                   	ret    
    1414:	66 90                	xchg   %ax,%ax
    1416:	66 90                	xchg   %ax,%ax
    1418:	66 90                	xchg   %ax,%ax
    141a:	66 90                	xchg   %ax,%ax
    141c:	66 90                	xchg   %ax,%ax
    141e:	66 90                	xchg   %ax,%ax

00001420 <deregister_tm_clones>:
    1420:	e8 e4 00 00 00       	call   1509 <__x86.get_pc_thunk.dx>
    1425:	81 c2 4b 4b 00 00    	add    $0x4b4b,%edx
    142b:	8d 8a d0 07 00 00    	lea    0x7d0(%edx),%ecx
    1431:	8d 82 d0 07 00 00    	lea    0x7d0(%edx),%eax
    1437:	39 c8                	cmp    %ecx,%eax
    1439:	74 1d                	je     1458 <deregister_tm_clones+0x38>
    143b:	8b 82 7c 00 00 00    	mov    0x7c(%edx),%eax
    1441:	85 c0                	test   %eax,%eax
    1443:	74 13                	je     1458 <deregister_tm_clones+0x38>
    1445:	55                   	push   %ebp
    1446:	89 e5                	mov    %esp,%ebp
    1448:	83 ec 14             	sub    $0x14,%esp
    144b:	51                   	push   %ecx
    144c:	ff d0                	call   *%eax
    144e:	83 c4 10             	add    $0x10,%esp
    1451:	c9                   	leave  
    1452:	c3                   	ret    
    1453:	8d 74 26 00          	lea    0x0(%esi,%eiz,1),%esi
    1457:	90                   	nop
    1458:	c3                   	ret    
    1459:	8d b4 26 00 00 00 00 	lea    0x0(%esi,%eiz,1),%esi

00001460 <register_tm_clones>:
    1460:	e8 a4 00 00 00       	call   1509 <__x86.get_pc_thunk.dx>
    1465:	81 c2 0b 4b 00 00    	add    $0x4b0b,%edx
    146b:	55                   	push   %ebp
    146c:	89 e5                	mov    %esp,%ebp
    146e:	53                   	push   %ebx
    146f:	8d 8a d0 07 00 00    	lea    0x7d0(%edx),%ecx
    1475:	8d 82 d0 07 00 00    	lea    0x7d0(%edx),%eax
    147b:	83 ec 04             	sub    $0x4,%esp
    147e:	29 c8                	sub    %ecx,%eax
    1480:	89 c3                	mov    %eax,%ebx
    1482:	c1 e8 1f             	shr    $0x1f,%eax
    1485:	c1 fb 02             	sar    $0x2,%ebx
    1488:	01 d8                	add    %ebx,%eax
    148a:	d1 f8                	sar    %eax
    148c:	74 14                	je     14a2 <register_tm_clones+0x42>
    148e:	8b 92 8c 00 00 00    	mov    0x8c(%edx),%edx
    1494:	85 d2                	test   %edx,%edx
    1496:	74 0a                	je     14a2 <register_tm_clones+0x42>
    1498:	83 ec 08             	sub    $0x8,%esp
    149b:	50                   	push   %eax
    149c:	51                   	push   %ecx
    149d:	ff d2                	call   *%edx
    149f:	83 c4 10             	add    $0x10,%esp
    14a2:	8b 5d fc             	mov    -0x4(%ebp),%ebx
    14a5:	c9                   	leave  
    14a6:	c3                   	ret    
    14a7:	8d b4 26 00 00 00 00 	lea    0x0(%esi,%eiz,1),%esi
    14ae:	66 90                	xchg   %ax,%ax

000014b0 <__do_global_dtors_aux>:
    14b0:	f3 0f 1e fb          	endbr32 
    14b4:	55                   	push   %ebp
    14b5:	89 e5                	mov    %esp,%ebp
    14b7:	53                   	push   %ebx
    14b8:	e8 53 ff ff ff       	call   1410 <__x86.get_pc_thunk.bx>
    14bd:	81 c3 b3 4a 00 00    	add    $0x4ab3,%ebx
    14c3:	83 ec 04             	sub    $0x4,%esp
    14c6:	80 bb f8 07 00 00 00 	cmpb   $0x0,0x7f8(%ebx)
    14cd:	75 27                	jne    14f6 <__do_global_dtors_aux+0x46>
    14cf:	8b 83 80 00 00 00    	mov    0x80(%ebx),%eax
    14d5:	85 c0                	test   %eax,%eax
    14d7:	74 11                	je     14ea <__do_global_dtors_aux+0x3a>
    14d9:	83 ec 0c             	sub    $0xc,%esp
    14dc:	ff b3 94 00 00 00    	pushl  0x94(%ebx)
    14e2:	e8 19 fd ff ff       	call   1200 <__cxa_finalize@plt>
    14e7:	83 c4 10             	add    $0x10,%esp
    14ea:	e8 31 ff ff ff       	call   1420 <deregister_tm_clones>
    14ef:	c6 83 f8 07 00 00 01 	movb   $0x1,0x7f8(%ebx)
    14f6:	8b 5d fc             	mov    -0x4(%ebp),%ebx
    14f9:	c9                   	leave  
    14fa:	c3                   	ret    
    14fb:	8d 74 26 00          	lea    0x0(%esi,%eiz,1),%esi
    14ff:	90                   	nop

00001500 <frame_dummy>:
    1500:	f3 0f 1e fb          	endbr32 
    1504:	e9 57 ff ff ff       	jmp    1460 <register_tm_clones>

00001509 <__x86.get_pc_thunk.dx>:
    1509:	8b 14 24             	mov    (%esp),%edx
    150c:	c3                   	ret    

0000150d <main>:
    150d:	f3 0f 1e fb          	endbr32 
    1511:	8d 4c 24 04          	lea    0x4(%esp),%ecx
    1515:	83 e4 f0             	and    $0xfffffff0,%esp
    1518:	ff 71 fc             	pushl  -0x4(%ecx)
    151b:	55                   	push   %ebp
    151c:	89 e5                	mov    %esp,%ebp
    151e:	53                   	push   %ebx
    151f:	51                   	push   %ecx
    1520:	8b 01                	mov    (%ecx),%eax
    1522:	8b 59 04             	mov    0x4(%ecx),%ebx
    1525:	83 f8 01             	cmp    $0x1,%eax
    1528:	0f 84 5b 01 00 00    	je     1689 <main+0x17c>
    152e:	83 f8 02             	cmp    $0x2,%eax
    1531:	0f 85 7e 01 00 00    	jne    16b5 <main+0x1a8>
    1537:	83 ec 08             	sub    $0x8,%esp
    153a:	68 08 30 00 00       	push   $0x3008
    153f:	ff 73 04             	pushl  0x4(%ebx)
    1542:	e8 fc ff ff ff       	call   1543 <main+0x36>
    1547:	a3 70 67 00 00       	mov    %eax,0x6770
    154c:	83 c4 10             	add    $0x10,%esp
    154f:	85 c0                	test   %eax,%eax
    1551:	0f 84 41 01 00 00    	je     1698 <main+0x18b>
    1557:	e8 c8 06 00 00       	call   1c24 <initialize_bomb>
    155c:	83 ec 0c             	sub    $0xc,%esp
    155f:	68 98 30 00 00       	push   $0x3098
    1564:	e8 fc ff ff ff       	call   1565 <main+0x58>
    1569:	c7 04 24 d4 30 00 00 	movl   $0x30d4,(%esp)
    1570:	e8 fc ff ff ff       	call   1571 <main+0x64>
    1575:	e8 30 09 00 00       	call   1eaa <read_line>
    157a:	89 04 24             	mov    %eax,(%esp)
    157d:	e8 50 01 00 00       	call   16d2 <phase_1>
    1582:	e8 24 0a 00 00       	call   1fab <phase_defused>
    1587:	c7 04 24 00 31 00 00 	movl   $0x3100,(%esp)
    158e:	e8 fc ff ff ff       	call   158f <main+0x82>
    1593:	e8 12 09 00 00       	call   1eaa <read_line>
    1598:	89 04 24             	mov    %eax,(%esp)
    159b:	e8 78 01 00 00       	call   1718 <phase_2>
    15a0:	e8 06 0a 00 00       	call   1fab <phase_defused>
    15a5:	c7 04 24 41 30 00 00 	movl   $0x3041,(%esp)
    15ac:	e8 fc ff ff ff       	call   15ad <main+0xa0>
    15b1:	e8 f4 08 00 00       	call   1eaa <read_line>
    15b6:	89 04 24             	mov    %eax,(%esp)
    15b9:	e8 81 01 00 00       	call   173f <phase_3>
    15be:	e8 e8 09 00 00       	call   1fab <phase_defused>
    15c3:	c7 04 24 5f 30 00 00 	movl   $0x305f,(%esp)
    15ca:	e8 fc ff ff ff       	call   15cb <main+0xbe>
    15cf:	e8 d6 08 00 00       	call   1eaa <read_line>
    15d4:	89 04 24             	mov    %eax,(%esp)
    15d7:	e8 c4 01 00 00       	call   17a0 <phase_4>
    15dc:	e8 ca 09 00 00       	call   1fab <phase_defused>
    15e1:	c7 04 24 2c 31 00 00 	movl   $0x312c,(%esp)
    15e8:	e8 fc ff ff ff       	call   15e9 <main+0xdc>
    15ed:	e8 b8 08 00 00       	call   1eaa <read_line>
    15f2:	89 04 24             	mov    %eax,(%esp)
    15f5:	e8 07 02 00 00       	call   1801 <phase_5>
    15fa:	e8 ac 09 00 00       	call   1fab <phase_defused>
    15ff:	c7 04 24 70 30 00 00 	movl   $0x3070,(%esp)
    1606:	e8 fc ff ff ff       	call   1607 <main+0xfa>
    160b:	e8 9a 08 00 00       	call   1eaa <read_line>
    1610:	89 04 24             	mov    %eax,(%esp)
    1613:	e8 b1 02 00 00       	call   18c9 <phase_6>
    1618:	e8 8e 09 00 00       	call   1fab <phase_defused>
    161d:	c7 04 24 50 31 00 00 	movl   $0x3150,(%esp)
    1624:	e8 fc ff ff ff       	call   1625 <main+0x118>
    1629:	e8 7c 08 00 00       	call   1eaa <read_line>
    162e:	89 04 24             	mov    %eax,(%esp)
    1631:	e8 ee 02 00 00       	call   1924 <phase_7>
    1636:	e8 70 09 00 00       	call   1fab <phase_defused>
    163b:	c7 04 24 70 31 00 00 	movl   $0x3170,(%esp)
    1642:	e8 fc ff ff ff       	call   1643 <main+0x136>
    1647:	e8 5e 08 00 00       	call   1eaa <read_line>
    164c:	89 04 24             	mov    %eax,(%esp)
    164f:	e8 20 03 00 00       	call   1974 <phase_8>
    1654:	e8 52 09 00 00       	call   1fab <phase_defused>
    1659:	c7 04 24 8e 30 00 00 	movl   $0x308e,(%esp)
    1660:	e8 fc ff ff ff       	call   1661 <main+0x154>
    1665:	e8 40 08 00 00       	call   1eaa <read_line>
    166a:	89 04 24             	mov    %eax,(%esp)
    166d:	e8 62 04 00 00       	call   1ad4 <phase_9>
    1672:	e8 34 09 00 00       	call   1fab <phase_defused>
    1677:	83 c4 10             	add    $0x10,%esp
    167a:	b8 00 00 00 00       	mov    $0x0,%eax
    167f:	8d 65 f8             	lea    -0x8(%ebp),%esp
    1682:	59                   	pop    %ecx
    1683:	5b                   	pop    %ebx
    1684:	5d                   	pop    %ebp
    1685:	8d 61 fc             	lea    -0x4(%ecx),%esp
    1688:	c3                   	ret    
    1689:	a1 00 00 00 00       	mov    0x0,%eax
    168e:	a3 70 67 00 00       	mov    %eax,0x6770
    1693:	e9 bf fe ff ff       	jmp    1557 <main+0x4a>
    1698:	ff 73 04             	pushl  0x4(%ebx)
    169b:	ff 33                	pushl  (%ebx)
    169d:	68 0a 30 00 00       	push   $0x300a
    16a2:	6a 01                	push   $0x1
    16a4:	e8 fc ff ff ff       	call   16a5 <main+0x198>
    16a9:	c7 04 24 08 00 00 00 	movl   $0x8,(%esp)
    16b0:	e8 fc ff ff ff       	call   16b1 <main+0x1a4>
    16b5:	83 ec 04             	sub    $0x4,%esp
    16b8:	ff 33                	pushl  (%ebx)
    16ba:	68 27 30 00 00       	push   $0x3027
    16bf:	6a 01                	push   $0x1
    16c1:	e8 fc ff ff ff       	call   16c2 <main+0x1b5>
    16c6:	c7 04 24 08 00 00 00 	movl   $0x8,(%esp)
    16cd:	e8 fc ff ff ff       	call   16ce <main+0x1c1>

000016d2 <phase_1>:
    16d2:	f3 0f 1e fb          	endbr32 
    16d6:	83 ec 20             	sub    $0x20,%esp
    16d9:	c7 44 24 10 00 00 00 	movl   $0x0,0x10(%esp)
    16e0:	00 
    16e1:	8d 44 24 10          	lea    0x10(%esp),%eax
    16e5:	50                   	push   %eax
    16e6:	68 40 34 00 00       	push   $0x3440
    16eb:	ff 74 24 2c          	pushl  0x2c(%esp)
    16ef:	e8 fc ff ff ff       	call   16f0 <phase_1+0x1e>
    16f4:	83 c4 10             	add    $0x10,%esp
    16f7:	83 f8 01             	cmp    $0x1,%eax
    16fa:	75 0e                	jne    170a <phase_1+0x38>
    16fc:	81 7c 24 0c a2 00 00 	cmpl   $0xa2,0xc(%esp)
    1703:	00 
    1704:	75 0b                	jne    1711 <phase_1+0x3f>
    1706:	83 c4 1c             	add    $0x1c,%esp
    1709:	c3                   	ret    
    170a:	e8 19 07 00 00       	call   1e28 <explode_bomb>
    170f:	eb eb                	jmp    16fc <phase_1+0x2a>
    1711:	e8 12 07 00 00       	call   1e28 <explode_bomb>
    1716:	eb ee                	jmp    1706 <phase_1+0x34>

00001718 <phase_2>:
    1718:	f3 0f 1e fb          	endbr32 
    171c:	83 ec 14             	sub    $0x14,%esp
    171f:	68 a8 31 00 00       	push   $0x31a8
    1724:	ff 74 24 1c          	pushl  0x1c(%esp)
    1728:	e8 9b 04 00 00       	call   1bc8 <strings_not_equal>
    172d:	83 c4 10             	add    $0x10,%esp
    1730:	85 c0                	test   %eax,%eax
    1732:	75 04                	jne    1738 <phase_2+0x20>
    1734:	83 c4 0c             	add    $0xc,%esp
    1737:	c3                   	ret    
    1738:	e8 eb 06 00 00       	call   1e28 <explode_bomb>
    173d:	eb f5                	jmp    1734 <phase_2+0x1c>

0000173f <phase_3>:
    173f:	f3 0f 1e fb          	endbr32 
    1743:	57                   	push   %edi
    1744:	56                   	push   %esi
    1745:	83 ec 10             	sub    $0x10,%esp
    1748:	68 e8 31 00 00       	push   $0x31e8
    174d:	e8 54 04 00 00       	call   1ba6 <string_length>
    1752:	83 c0 01             	add    $0x1,%eax
    1755:	89 04 24             	mov    %eax,(%esp)
    1758:	e8 fc ff ff ff       	call   1759 <phase_3+0x1a>
    175d:	be e8 31 00 00       	mov    $0x31e8,%esi
    1762:	b9 13 00 00 00       	mov    $0x13,%ecx
    1767:	89 c7                	mov    %eax,%edi
    1769:	f3 a5                	rep movsl %ds:(%esi),%es:(%edi)
    176b:	0f b7 16             	movzwl (%esi),%edx
    176e:	66 89 17             	mov    %dx,(%edi)
    1771:	0f b6 15 36 32 00 00 	movzbl 0x3236,%edx
    1778:	88 57 02             	mov    %dl,0x2(%edi)
    177b:	c6 40 06 77          	movb   $0x77,0x6(%eax)
    177f:	83 c4 08             	add    $0x8,%esp
    1782:	50                   	push   %eax
    1783:	ff 74 24 1c          	pushl  0x1c(%esp)
    1787:	e8 3c 04 00 00       	call   1bc8 <strings_not_equal>
    178c:	83 c4 10             	add    $0x10,%esp
    178f:	85 c0                	test   %eax,%eax
    1791:	75 06                	jne    1799 <phase_3+0x5a>
    1793:	83 c4 04             	add    $0x4,%esp
    1796:	5e                   	pop    %esi
    1797:	5f                   	pop    %edi
    1798:	c3                   	ret    
    1799:	e8 8a 06 00 00       	call   1e28 <explode_bomb>
    179e:	eb f3                	jmp    1793 <phase_3+0x54>

000017a0 <phase_4>:
    17a0:	f3 0f 1e fb          	endbr32 
    17a4:	56                   	push   %esi
    17a5:	53                   	push   %ebx
    17a6:	83 ec 10             	sub    $0x10,%esp
    17a9:	8b 74 24 1c          	mov    0x1c(%esp),%esi
    17ad:	56                   	push   %esi
    17ae:	e8 f3 03 00 00       	call   1ba6 <string_length>
    17b3:	89 c3                	mov    %eax,%ebx
    17b5:	8d 40 01             	lea    0x1(%eax),%eax
    17b8:	89 04 24             	mov    %eax,(%esp)
    17bb:	e8 fc ff ff ff       	call   17bc <phase_4+0x1c>
    17c0:	8d 14 18             	lea    (%eax,%ebx,1),%edx
    17c3:	c6 02 00             	movb   $0x0,(%edx)
    17c6:	0f b6 0e             	movzbl (%esi),%ecx
    17c9:	83 c4 10             	add    $0x10,%esp
    17cc:	84 c9                	test   %cl,%cl
    17ce:	74 0f                	je     17df <phase_4+0x3f>
    17d0:	83 ea 01             	sub    $0x1,%edx
    17d3:	88 0a                	mov    %cl,(%edx)
    17d5:	83 c6 01             	add    $0x1,%esi
    17d8:	0f b6 0e             	movzbl (%esi),%ecx
    17db:	84 c9                	test   %cl,%cl
    17dd:	75 f1                	jne    17d0 <phase_4+0x30>
    17df:	83 ec 08             	sub    $0x8,%esp
    17e2:	50                   	push   %eax
    17e3:	68 8f 31 00 00       	push   $0x318f
    17e8:	e8 db 03 00 00       	call   1bc8 <strings_not_equal>
    17ed:	83 c4 10             	add    $0x10,%esp
    17f0:	85 c0                	test   %eax,%eax
    17f2:	75 06                	jne    17fa <phase_4+0x5a>
    17f4:	83 c4 04             	add    $0x4,%esp
    17f7:	5b                   	pop    %ebx
    17f8:	5e                   	pop    %esi
    17f9:	c3                   	ret    
    17fa:	e8 29 06 00 00       	call   1e28 <explode_bomb>
    17ff:	eb f3                	jmp    17f4 <phase_4+0x54>

00001801 <phase_5>:
    1801:	f3 0f 1e fb          	endbr32 
    1805:	56                   	push   %esi
    1806:	53                   	push   %ebx
    1807:	83 ec 18             	sub    $0x18,%esp
    180a:	8d 44 24 10          	lea    0x10(%esp),%eax
    180e:	50                   	push   %eax
    180f:	68 40 34 00 00       	push   $0x3440
    1814:	ff 74 24 2c          	pushl  0x2c(%esp)
    1818:	e8 fc ff ff ff       	call   1819 <phase_5+0x18>
    181d:	83 c4 10             	add    $0x10,%esp
    1820:	83 f8 01             	cmp    $0x1,%eax
    1823:	75 19                	jne    183e <phase_5+0x3d>
    1825:	8b 74 24 0c          	mov    0xc(%esp),%esi
    1829:	85 f6                	test   %esi,%esi
    182b:	7e 34                	jle    1861 <phase_5+0x60>
    182d:	b8 00 00 00 00       	mov    $0x0,%eax
    1832:	b9 00 00 00 00       	mov    $0x0,%ecx
    1837:	ba 01 00 00 00       	mov    $0x1,%edx
    183c:	eb 09                	jmp    1847 <phase_5+0x46>
    183e:	e8 e5 05 00 00       	call   1e28 <explode_bomb>
    1843:	eb e0                	jmp    1825 <phase_5+0x24>
    1845:	89 da                	mov    %ebx,%edx
    1847:	8d 1c 0a             	lea    (%edx,%ecx,1),%ebx
    184a:	83 c0 01             	add    $0x1,%eax
    184d:	89 d1                	mov    %edx,%ecx
    184f:	39 f0                	cmp    %esi,%eax
    1851:	75 f2                	jne    1845 <phase_5+0x44>
    1853:	81 fb 62 02 00 00    	cmp    $0x262,%ebx
    1859:	75 06                	jne    1861 <phase_5+0x60>
    185b:	83 c4 14             	add    $0x14,%esp
    185e:	5b                   	pop    %ebx
    185f:	5e                   	pop    %esi
    1860:	c3                   	ret    
    1861:	e8 c2 05 00 00       	call   1e28 <explode_bomb>
    1866:	eb f3                	jmp    185b <phase_5+0x5a>

00001868 <func6>:
    1868:	f3 0f 1e fb          	endbr32 
    186c:	56                   	push   %esi
    186d:	53                   	push   %ebx
    186e:	83 ec 04             	sub    $0x4,%esp
    1871:	8b 4c 24 10          	mov    0x10(%esp),%ecx
    1875:	8b 44 24 14          	mov    0x14(%esp),%eax
    1879:	8b 5c 24 18          	mov    0x18(%esp),%ebx
    187d:	89 de                	mov    %ebx,%esi
    187f:	29 c6                	sub    %eax,%esi
    1881:	89 f2                	mov    %esi,%edx
    1883:	c1 ea 1f             	shr    $0x1f,%edx
    1886:	01 f2                	add    %esi,%edx
    1888:	d1 fa                	sar    %edx
    188a:	01 c2                	add    %eax,%edx
    188c:	39 ca                	cmp    %ecx,%edx
    188e:	7f 0d                	jg     189d <func6+0x35>
    1890:	b8 00 00 00 00       	mov    $0x0,%eax
    1895:	7c 1b                	jl     18b2 <func6+0x4a>
    1897:	83 c4 04             	add    $0x4,%esp
    189a:	5b                   	pop    %ebx
    189b:	5e                   	pop    %esi
    189c:	c3                   	ret    
    189d:	83 ec 04             	sub    $0x4,%esp
    18a0:	83 ea 01             	sub    $0x1,%edx
    18a3:	52                   	push   %edx
    18a4:	50                   	push   %eax
    18a5:	51                   	push   %ecx
    18a6:	e8 bd ff ff ff       	call   1868 <func6>
    18ab:	83 c4 10             	add    $0x10,%esp
    18ae:	01 c0                	add    %eax,%eax
    18b0:	eb e5                	jmp    1897 <func6+0x2f>
    18b2:	83 ec 04             	sub    $0x4,%esp
    18b5:	53                   	push   %ebx
    18b6:	83 c2 01             	add    $0x1,%edx
    18b9:	52                   	push   %edx
    18ba:	51                   	push   %ecx
    18bb:	e8 a8 ff ff ff       	call   1868 <func6>
    18c0:	83 c4 10             	add    $0x10,%esp
    18c3:	8d 44 00 01          	lea    0x1(%eax,%eax,1),%eax
    18c7:	eb ce                	jmp    1897 <func6+0x2f>

000018c9 <phase_6>:
    18c9:	f3 0f 1e fb          	endbr32 
    18cd:	83 ec 1c             	sub    $0x1c,%esp
    18d0:	8d 44 24 08          	lea    0x8(%esp),%eax
    18d4:	50                   	push   %eax
    18d5:	8d 44 24 10          	lea    0x10(%esp),%eax
    18d9:	50                   	push   %eax
    18da:	68 3d 34 00 00       	push   $0x343d
    18df:	ff 74 24 2c          	pushl  0x2c(%esp)
    18e3:	e8 fc ff ff ff       	call   18e4 <phase_6+0x1b>
    18e8:	83 c4 10             	add    $0x10,%esp
    18eb:	83 f8 02             	cmp    $0x2,%eax
    18ee:	75 07                	jne    18f7 <phase_6+0x2e>
    18f0:	83 7c 24 0c 0e       	cmpl   $0xe,0xc(%esp)
    18f5:	76 05                	jbe    18fc <phase_6+0x33>
    18f7:	e8 2c 05 00 00       	call   1e28 <explode_bomb>
    18fc:	83 ec 04             	sub    $0x4,%esp
    18ff:	6a 0e                	push   $0xe
    1901:	6a 00                	push   $0x0
    1903:	ff 74 24 18          	pushl  0x18(%esp)
    1907:	e8 5c ff ff ff       	call   1868 <func6>
    190c:	83 c4 10             	add    $0x10,%esp
    190f:	83 f8 07             	cmp    $0x7,%eax
    1912:	75 07                	jne    191b <phase_6+0x52>
    1914:	83 7c 24 08 07       	cmpl   $0x7,0x8(%esp)
    1919:	74 05                	je     1920 <phase_6+0x57>
    191b:	e8 08 05 00 00       	call   1e28 <explode_bomb>
    1920:	83 c4 1c             	add    $0x1c,%esp
    1923:	c3                   	ret    

00001924 <phase_7>:
    1924:	f3 0f 1e fb          	endbr32 
    1928:	53                   	push   %ebx
    1929:	83 ec 14             	sub    $0x14,%esp
    192c:	8b 5c 24 1c          	mov    0x1c(%esp),%ebx
    1930:	53                   	push   %ebx
    1931:	e8 70 02 00 00       	call   1ba6 <string_length>
    1936:	83 c4 10             	add    $0x10,%esp
    1939:	83 f8 06             	cmp    $0x6,%eax
    193c:	75 28                	jne    1966 <phase_7+0x42>
    193e:	89 d8                	mov    %ebx,%eax
    1940:	83 c3 06             	add    $0x6,%ebx
    1943:	b9 00 00 00 00       	mov    $0x0,%ecx
    1948:	0f b6 10             	movzbl (%eax),%edx
    194b:	83 e2 0f             	and    $0xf,%edx
    194e:	03 0c 95 40 32 00 00 	add    0x3240(,%edx,4),%ecx
    1955:	83 c0 01             	add    $0x1,%eax
    1958:	39 d8                	cmp    %ebx,%eax
    195a:	75 ec                	jne    1948 <phase_7+0x24>
    195c:	83 f9 2f             	cmp    $0x2f,%ecx
    195f:	75 0c                	jne    196d <phase_7+0x49>
    1961:	83 c4 08             	add    $0x8,%esp
    1964:	5b                   	pop    %ebx
    1965:	c3                   	ret    
    1966:	e8 bd 04 00 00       	call   1e28 <explode_bomb>
    196b:	eb d1                	jmp    193e <phase_7+0x1a>
    196d:	e8 b6 04 00 00       	call   1e28 <explode_bomb>
    1972:	eb ed                	jmp    1961 <phase_7+0x3d>

00001974 <phase_8>:
    1974:	f3 0f 1e fb          	endbr32 
    1978:	55                   	push   %ebp
    1979:	57                   	push   %edi
    197a:	56                   	push   %esi
    197b:	53                   	push   %ebx
    197c:	83 ec 54             	sub    $0x54,%esp
    197f:	8d 44 24 30          	lea    0x30(%esp),%eax
    1983:	50                   	push   %eax
    1984:	ff 74 24 6c          	pushl  0x6c(%esp)
    1988:	e8 de 04 00 00       	call   1e6b <read_six_numbers>
    198d:	8d 6c 24 3c          	lea    0x3c(%esp),%ebp
    1991:	83 c4 10             	add    $0x10,%esp
    1994:	c7 44 24 0c 00 00 00 	movl   $0x0,0xc(%esp)
    199b:	00 
    199c:	8d 7c 24 40          	lea    0x40(%esp),%edi
    19a0:	eb 1f                	jmp    19c1 <phase_8+0x4d>
    19a2:	e8 81 04 00 00       	call   1e28 <explode_bomb>
    19a7:	eb 25                	jmp    19ce <phase_8+0x5a>
    19a9:	e8 7a 04 00 00       	call   1e28 <explode_bomb>
    19ae:	83 c3 04             	add    $0x4,%ebx
    19b1:	39 df                	cmp    %ebx,%edi
    19b3:	74 09                	je     19be <phase_8+0x4a>
    19b5:	8b 03                	mov    (%ebx),%eax
    19b7:	39 46 fc             	cmp    %eax,-0x4(%esi)
    19ba:	75 f2                	jne    19ae <phase_8+0x3a>
    19bc:	eb eb                	jmp    19a9 <phase_8+0x35>
    19be:	83 c5 04             	add    $0x4,%ebp
    19c1:	89 ee                	mov    %ebp,%esi
    19c3:	8b 45 fc             	mov    -0x4(%ebp),%eax
    19c6:	83 e8 01             	sub    $0x1,%eax
    19c9:	83 f8 05             	cmp    $0x5,%eax
    19cc:	77 d4                	ja     19a2 <phase_8+0x2e>
    19ce:	83 44 24 0c 01       	addl   $0x1,0xc(%esp)
    19d3:	8b 44 24 0c          	mov    0xc(%esp),%eax
    19d7:	83 f8 05             	cmp    $0x5,%eax
    19da:	7f 04                	jg     19e0 <phase_8+0x6c>
    19dc:	89 eb                	mov    %ebp,%ebx
    19de:	eb d5                	jmp    19b5 <phase_8+0x41>
    19e0:	8d 44 24 28          	lea    0x28(%esp),%eax
    19e4:	8d 5c 24 40          	lea    0x40(%esp),%ebx
    19e8:	b9 07 00 00 00       	mov    $0x7,%ecx
    19ed:	89 ca                	mov    %ecx,%edx
    19ef:	2b 10                	sub    (%eax),%edx
    19f1:	89 10                	mov    %edx,(%eax)
    19f3:	83 c0 04             	add    $0x4,%eax
    19f6:	39 c3                	cmp    %eax,%ebx
    19f8:	75 f3                	jne    19ed <phase_8+0x79>
    19fa:	bb 00 00 00 00       	mov    $0x0,%ebx
    19ff:	89 de                	mov    %ebx,%esi
    1a01:	8b 4c 9c 28          	mov    0x28(%esp,%ebx,4),%ecx
    1a05:	b8 01 00 00 00       	mov    $0x1,%eax
    1a0a:	ba d4 60 00 00       	mov    $0x60d4,%edx
    1a0f:	83 f9 01             	cmp    $0x1,%ecx
    1a12:	7e 0a                	jle    1a1e <phase_8+0xaa>
    1a14:	8b 52 08             	mov    0x8(%edx),%edx
    1a17:	83 c0 01             	add    $0x1,%eax
    1a1a:	39 c8                	cmp    %ecx,%eax
    1a1c:	75 f6                	jne    1a14 <phase_8+0xa0>
    1a1e:	89 54 b4 10          	mov    %edx,0x10(%esp,%esi,4)
    1a22:	83 c3 01             	add    $0x1,%ebx
    1a25:	83 fb 06             	cmp    $0x6,%ebx
    1a28:	75 d5                	jne    19ff <phase_8+0x8b>
    1a2a:	8b 5c 24 10          	mov    0x10(%esp),%ebx
    1a2e:	8b 44 24 14          	mov    0x14(%esp),%eax
    1a32:	89 43 08             	mov    %eax,0x8(%ebx)
    1a35:	8b 54 24 18          	mov    0x18(%esp),%edx
    1a39:	89 50 08             	mov    %edx,0x8(%eax)
    1a3c:	8b 44 24 1c          	mov    0x1c(%esp),%eax
    1a40:	89 42 08             	mov    %eax,0x8(%edx)
    1a43:	8b 54 24 20          	mov    0x20(%esp),%edx
    1a47:	89 50 08             	mov    %edx,0x8(%eax)
    1a4a:	8b 44 24 24          	mov    0x24(%esp),%eax
    1a4e:	89 42 08             	mov    %eax,0x8(%edx)
    1a51:	c7 40 08 00 00 00 00 	movl   $0x0,0x8(%eax)
    1a58:	be 05 00 00 00       	mov    $0x5,%esi
    1a5d:	eb 08                	jmp    1a67 <phase_8+0xf3>
    1a5f:	8b 5b 08             	mov    0x8(%ebx),%ebx
    1a62:	83 ee 01             	sub    $0x1,%esi
    1a65:	74 10                	je     1a77 <phase_8+0x103>
    1a67:	8b 43 08             	mov    0x8(%ebx),%eax
    1a6a:	8b 00                	mov    (%eax),%eax
    1a6c:	39 03                	cmp    %eax,(%ebx)
    1a6e:	7d ef                	jge    1a5f <phase_8+0xeb>
    1a70:	e8 b3 03 00 00       	call   1e28 <explode_bomb>
    1a75:	eb e8                	jmp    1a5f <phase_8+0xeb>
    1a77:	83 c4 4c             	add    $0x4c,%esp
    1a7a:	5b                   	pop    %ebx
    1a7b:	5e                   	pop    %esi
    1a7c:	5f                   	pop    %edi
    1a7d:	5d                   	pop    %ebp
    1a7e:	c3                   	ret    

00001a7f <fun9>:
    1a7f:	f3 0f 1e fb          	endbr32 
    1a83:	53                   	push   %ebx
    1a84:	83 ec 08             	sub    $0x8,%esp
    1a87:	8b 54 24 10          	mov    0x10(%esp),%edx
    1a8b:	8b 4c 24 14          	mov    0x14(%esp),%ecx
    1a8f:	85 d2                	test   %edx,%edx
    1a91:	74 3a                	je     1acd <fun9+0x4e>
    1a93:	8b 1a                	mov    (%edx),%ebx
    1a95:	39 cb                	cmp    %ecx,%ebx
    1a97:	7f 0c                	jg     1aa5 <fun9+0x26>
    1a99:	b8 00 00 00 00       	mov    $0x0,%eax
    1a9e:	75 18                	jne    1ab8 <fun9+0x39>
    1aa0:	83 c4 08             	add    $0x8,%esp
    1aa3:	5b                   	pop    %ebx
    1aa4:	c3                   	ret    
    1aa5:	83 ec 08             	sub    $0x8,%esp
    1aa8:	51                   	push   %ecx
    1aa9:	ff 72 04             	pushl  0x4(%edx)
    1aac:	e8 ce ff ff ff       	call   1a7f <fun9>
    1ab1:	83 c4 10             	add    $0x10,%esp
    1ab4:	01 c0                	add    %eax,%eax
    1ab6:	eb e8                	jmp    1aa0 <fun9+0x21>
    1ab8:	83 ec 08             	sub    $0x8,%esp
    1abb:	51                   	push   %ecx
    1abc:	ff 72 08             	pushl  0x8(%edx)
    1abf:	e8 bb ff ff ff       	call   1a7f <fun9>
    1ac4:	83 c4 10             	add    $0x10,%esp
    1ac7:	8d 44 00 01          	lea    0x1(%eax,%eax,1),%eax
    1acb:	eb d3                	jmp    1aa0 <fun9+0x21>
    1acd:	b8 ff ff ff ff       	mov    $0xffffffff,%eax
    1ad2:	eb cc                	jmp    1aa0 <fun9+0x21>

00001ad4 <phase_9>:
    1ad4:	f3 0f 1e fb          	endbr32 
    1ad8:	53                   	push   %ebx
    1ad9:	83 ec 0c             	sub    $0xc,%esp
    1adc:	6a 0a                	push   $0xa
    1ade:	6a 00                	push   $0x0
    1ae0:	ff 74 24 1c          	pushl  0x1c(%esp)
    1ae4:	e8 fc ff ff ff       	call   1ae5 <phase_9+0x11>
    1ae9:	89 c3                	mov    %eax,%ebx
    1aeb:	8d 40 ff             	lea    -0x1(%eax),%eax
    1aee:	83 c4 10             	add    $0x10,%esp
    1af1:	3d e8 03 00 00       	cmp    $0x3e8,%eax
    1af6:	77 1b                	ja     1b13 <phase_9+0x3f>
    1af8:	83 ec 08             	sub    $0x8,%esp
    1afb:	53                   	push   %ebx
    1afc:	68 20 60 00 00       	push   $0x6020
    1b01:	e8 79 ff ff ff       	call   1a7f <fun9>
    1b06:	83 c4 10             	add    $0x10,%esp
    1b09:	83 f8 02             	cmp    $0x2,%eax
    1b0c:	75 0c                	jne    1b1a <phase_9+0x46>
    1b0e:	83 c4 08             	add    $0x8,%esp
    1b11:	5b                   	pop    %ebx
    1b12:	c3                   	ret    
    1b13:	e8 10 03 00 00       	call   1e28 <explode_bomb>
    1b18:	eb de                	jmp    1af8 <phase_9+0x24>
    1b1a:	e8 09 03 00 00       	call   1e28 <explode_bomb>
    1b1f:	eb ed                	jmp    1b0e <phase_9+0x3a>

00001b21 <sig_handler>:
    1b21:	f3 0f 1e fb          	endbr32 
    1b25:	56                   	push   %esi
    1b26:	5e                   	pop    %esi
    1b27:	83 ec 18             	sub    $0x18,%esp
    1b2a:	68 80 32 00 00       	push   $0x3280
    1b2f:	e8 fc ff ff ff       	call   1b30 <sig_handler+0xf>
    1b34:	c7 04 24 03 00 00 00 	movl   $0x3,(%esp)
    1b3b:	e8 fc ff ff ff       	call   1b3c <sig_handler+0x1b>
    1b40:	83 c4 08             	add    $0x8,%esp
    1b43:	68 b9 33 00 00       	push   $0x33b9
    1b48:	6a 01                	push   $0x1
    1b4a:	e8 fc ff ff ff       	call   1b4b <sig_handler+0x2a>
    1b4f:	83 c4 04             	add    $0x4,%esp
    1b52:	ff 35 00 00 00 00    	pushl  0x0
    1b58:	e8 fc ff ff ff       	call   1b59 <sig_handler+0x38>
    1b5d:	c7 04 24 01 00 00 00 	movl   $0x1,(%esp)
    1b64:	e8 fc ff ff ff       	call   1b65 <sig_handler+0x44>
    1b69:	c7 04 24 c1 33 00 00 	movl   $0x33c1,(%esp)
    1b70:	e8 fc ff ff ff       	call   1b71 <sig_handler+0x50>
    1b75:	c7 04 24 10 00 00 00 	movl   $0x10,(%esp)
    1b7c:	e8 fc ff ff ff       	call   1b7d <sig_handler+0x5c>

00001b81 <invalid_phase>:
    1b81:	f3 0f 1e fb          	endbr32 
    1b85:	56                   	push   %esi
    1b86:	5e                   	pop    %esi
    1b87:	83 ec 10             	sub    $0x10,%esp
    1b8a:	ff 74 24 14          	pushl  0x14(%esp)
    1b8e:	68 c9 33 00 00       	push   $0x33c9
    1b93:	6a 01                	push   $0x1
    1b95:	e8 fc ff ff ff       	call   1b96 <invalid_phase+0x15>
    1b9a:	c7 04 24 08 00 00 00 	movl   $0x8,(%esp)
    1ba1:	e8 fc ff ff ff       	call   1ba2 <invalid_phase+0x21>

00001ba6 <string_length>:
    1ba6:	f3 0f 1e fb          	endbr32 
    1baa:	8b 54 24 04          	mov    0x4(%esp),%edx
    1bae:	80 3a 00             	cmpb   $0x0,(%edx)
    1bb1:	74 0f                	je     1bc2 <string_length+0x1c>
    1bb3:	b8 00 00 00 00       	mov    $0x0,%eax
    1bb8:	83 c0 01             	add    $0x1,%eax
    1bbb:	80 3c 02 00          	cmpb   $0x0,(%edx,%eax,1)
    1bbf:	75 f7                	jne    1bb8 <string_length+0x12>
    1bc1:	c3                   	ret    
    1bc2:	b8 00 00 00 00       	mov    $0x0,%eax
    1bc7:	c3                   	ret    

00001bc8 <strings_not_equal>:
    1bc8:	f3 0f 1e fb          	endbr32 
    1bcc:	57                   	push   %edi
    1bcd:	56                   	push   %esi
    1bce:	53                   	push   %ebx
    1bcf:	8b 5c 24 10          	mov    0x10(%esp),%ebx
    1bd3:	8b 74 24 14          	mov    0x14(%esp),%esi
    1bd7:	53                   	push   %ebx
    1bd8:	e8 c9 ff ff ff       	call   1ba6 <string_length>
    1bdd:	89 c7                	mov    %eax,%edi
    1bdf:	89 34 24             	mov    %esi,(%esp)
    1be2:	e8 bf ff ff ff       	call   1ba6 <string_length>
    1be7:	83 c4 04             	add    $0x4,%esp
    1bea:	89 c2                	mov    %eax,%edx
    1bec:	b8 01 00 00 00       	mov    $0x1,%eax
    1bf1:	39 d7                	cmp    %edx,%edi
    1bf3:	75 2b                	jne    1c20 <strings_not_equal+0x58>
    1bf5:	0f b6 03             	movzbl (%ebx),%eax
    1bf8:	84 c0                	test   %al,%al
    1bfa:	74 18                	je     1c14 <strings_not_equal+0x4c>
    1bfc:	38 06                	cmp    %al,(%esi)
    1bfe:	75 1b                	jne    1c1b <strings_not_equal+0x53>
    1c00:	83 c3 01             	add    $0x1,%ebx
    1c03:	83 c6 01             	add    $0x1,%esi
    1c06:	0f b6 03             	movzbl (%ebx),%eax
    1c09:	84 c0                	test   %al,%al
    1c0b:	75 ef                	jne    1bfc <strings_not_equal+0x34>
    1c0d:	b8 00 00 00 00       	mov    $0x0,%eax
    1c12:	eb 0c                	jmp    1c20 <strings_not_equal+0x58>
    1c14:	b8 00 00 00 00       	mov    $0x0,%eax
    1c19:	eb 05                	jmp    1c20 <strings_not_equal+0x58>
    1c1b:	b8 01 00 00 00       	mov    $0x1,%eax
    1c20:	5b                   	pop    %ebx
    1c21:	5e                   	pop    %esi
    1c22:	5f                   	pop    %edi
    1c23:	c3                   	ret    

00001c24 <initialize_bomb>:
    1c24:	f3 0f 1e fb          	endbr32 
    1c28:	56                   	push   %esi
    1c29:	53                   	push   %ebx
    1c2a:	81 ec 00 10 00 00    	sub    $0x1000,%esp
    1c30:	83 0c 24 00          	orl    $0x0,(%esp)
    1c34:	81 ec 00 10 00 00    	sub    $0x1000,%esp
    1c3a:	83 0c 24 00          	orl    $0x0,(%esp)
    1c3e:	83 ec 4c             	sub    $0x4c,%esp
    1c41:	68 21 1b 00 00       	push   $0x1b21
    1c46:	6a 02                	push   $0x2
    1c48:	e8 fc ff ff ff       	call   1c49 <initialize_bomb+0x25>
    1c4d:	83 c4 08             	add    $0x8,%esp
    1c50:	6a 40                	push   $0x40
    1c52:	8d 84 24 0c 20 00 00 	lea    0x200c(%esp),%eax
    1c59:	50                   	push   %eax
    1c5a:	e8 fc ff ff ff       	call   1c5b <initialize_bomb+0x37>
    1c5f:	83 c4 10             	add    $0x10,%esp
    1c62:	85 c0                	test   %eax,%eax
    1c64:	75 4a                	jne    1cb0 <initialize_bomb+0x8c>
    1c66:	89 c3                	mov    %eax,%ebx
    1c68:	a1 40 65 00 00       	mov    0x6540,%eax
    1c6d:	8d b4 24 00 20 00 00 	lea    0x2000(%esp),%esi
    1c74:	85 c0                	test   %eax,%eax
    1c76:	74 1f                	je     1c97 <initialize_bomb+0x73>
    1c78:	83 ec 08             	sub    $0x8,%esp
    1c7b:	56                   	push   %esi
    1c7c:	50                   	push   %eax
    1c7d:	e8 fc ff ff ff       	call   1c7e <initialize_bomb+0x5a>
    1c82:	83 c4 10             	add    $0x10,%esp
    1c85:	85 c0                	test   %eax,%eax
    1c87:	74 60                	je     1ce9 <initialize_bomb+0xc5>
    1c89:	83 c3 01             	add    $0x1,%ebx
    1c8c:	8b 04 9d 40 65 00 00 	mov    0x6540(,%ebx,4),%eax
    1c93:	85 c0                	test   %eax,%eax
    1c95:	75 e1                	jne    1c78 <initialize_bomb+0x54>
    1c97:	83 ec 0c             	sub    $0xc,%esp
    1c9a:	68 f0 32 00 00       	push   $0x32f0
    1c9f:	e8 fc ff ff ff       	call   1ca0 <initialize_bomb+0x7c>
    1ca4:	c7 04 24 08 00 00 00 	movl   $0x8,(%esp)
    1cab:	e8 fc ff ff ff       	call   1cac <initialize_bomb+0x88>
    1cb0:	83 ec 0c             	sub    $0xc,%esp
    1cb3:	68 b8 32 00 00       	push   $0x32b8
    1cb8:	e8 fc ff ff ff       	call   1cb9 <initialize_bomb+0x95>
    1cbd:	c7 04 24 08 00 00 00 	movl   $0x8,(%esp)
    1cc4:	e8 fc ff ff ff       	call   1cc5 <initialize_bomb+0xa1>
    1cc9:	83 ec 04             	sub    $0x4,%esp
    1ccc:	8d 44 24 04          	lea    0x4(%esp),%eax
    1cd0:	50                   	push   %eax
    1cd1:	68 da 33 00 00       	push   $0x33da
    1cd6:	6a 01                	push   $0x1
    1cd8:	e8 fc ff ff ff       	call   1cd9 <initialize_bomb+0xb5>
    1cdd:	c7 04 24 08 00 00 00 	movl   $0x8,(%esp)
    1ce4:	e8 fc ff ff ff       	call   1ce5 <initialize_bomb+0xc1>
    1ce9:	83 ec 0c             	sub    $0xc,%esp
    1cec:	8d 44 24 0c          	lea    0xc(%esp),%eax
    1cf0:	50                   	push   %eax
    1cf1:	e8 e9 0b 00 00       	call   28df <init_driver>
    1cf6:	83 c4 10             	add    $0x10,%esp
    1cf9:	85 c0                	test   %eax,%eax
    1cfb:	78 cc                	js     1cc9 <initialize_bomb+0xa5>
    1cfd:	81 c4 44 20 00 00    	add    $0x2044,%esp
    1d03:	5b                   	pop    %ebx
    1d04:	5e                   	pop    %esi
    1d05:	c3                   	ret    

00001d06 <initialize_bomb_solve>:
    1d06:	f3 0f 1e fb          	endbr32 
    1d0a:	c3                   	ret    

00001d0b <blank_line>:
    1d0b:	f3 0f 1e fb          	endbr32 
    1d0f:	56                   	push   %esi
    1d10:	53                   	push   %ebx
    1d11:	83 ec 04             	sub    $0x4,%esp
    1d14:	8b 74 24 10          	mov    0x10(%esp),%esi
    1d18:	0f b6 1e             	movzbl (%esi),%ebx
    1d1b:	84 db                	test   %bl,%bl
    1d1d:	74 1b                	je     1d3a <blank_line+0x2f>
    1d1f:	e8 fc ff ff ff       	call   1d20 <blank_line+0x15>
    1d24:	83 c6 01             	add    $0x1,%esi
    1d27:	0f be db             	movsbl %bl,%ebx
    1d2a:	8b 00                	mov    (%eax),%eax
    1d2c:	f6 44 58 01 20       	testb  $0x20,0x1(%eax,%ebx,2)
    1d31:	75 e5                	jne    1d18 <blank_line+0xd>
    1d33:	b8 00 00 00 00       	mov    $0x0,%eax
    1d38:	eb 05                	jmp    1d3f <blank_line+0x34>
    1d3a:	b8 01 00 00 00       	mov    $0x1,%eax
    1d3f:	83 c4 04             	add    $0x4,%esp
    1d42:	5b                   	pop    %ebx
    1d43:	5e                   	pop    %esi
    1d44:	c3                   	ret    

00001d45 <skip>:
    1d45:	f3 0f 1e fb          	endbr32 
    1d49:	53                   	push   %ebx
    1d4a:	83 ec 08             	sub    $0x8,%esp
    1d4d:	83 ec 04             	sub    $0x4,%esp
    1d50:	ff 35 70 67 00 00    	pushl  0x6770
    1d56:	6a 55                	push   $0x55
    1d58:	6b 05 6c 67 00 00 55 	imul   $0x55,0x676c,%eax
    1d5f:	05 80 67 00 00       	add    $0x6780,%eax
    1d64:	50                   	push   %eax
    1d65:	e8 fc ff ff ff       	call   1d66 <skip+0x21>
    1d6a:	89 c3                	mov    %eax,%ebx
    1d6c:	83 c4 10             	add    $0x10,%esp
    1d6f:	85 c0                	test   %eax,%eax
    1d71:	74 10                	je     1d83 <skip+0x3e>
    1d73:	83 ec 0c             	sub    $0xc,%esp
    1d76:	50                   	push   %eax
    1d77:	e8 8f ff ff ff       	call   1d0b <blank_line>
    1d7c:	83 c4 10             	add    $0x10,%esp
    1d7f:	85 c0                	test   %eax,%eax
    1d81:	75 ca                	jne    1d4d <skip+0x8>
    1d83:	89 d8                	mov    %ebx,%eax
    1d85:	83 c4 08             	add    $0x8,%esp
    1d88:	5b                   	pop    %ebx
    1d89:	c3                   	ret    

00001d8a <send_msg>:
    1d8a:	f3 0f 1e fb          	endbr32 
    1d8e:	53                   	push   %ebx
    1d8f:	8d 84 24 00 c0 ff ff 	lea    -0x4000(%esp),%eax
    1d96:	81 ec 00 10 00 00    	sub    $0x1000,%esp
    1d9c:	83 0c 24 00          	orl    $0x0,(%esp)
    1da0:	39 c4                	cmp    %eax,%esp
    1da2:	75 f2                	jne    1d96 <send_msg+0xc>
    1da4:	83 ec 08             	sub    $0x8,%esp
    1da7:	8b 0d 6c 67 00 00    	mov    0x676c,%ecx
    1dad:	8d 41 ff             	lea    -0x1(%ecx),%eax
    1db0:	6b c0 55             	imul   $0x55,%eax,%eax
    1db3:	05 80 67 00 00       	add    $0x6780,%eax
    1db8:	83 bc 24 10 40 00 00 	cmpl   $0x0,0x4010(%esp)
    1dbf:	00 
    1dc0:	ba f4 33 00 00       	mov    $0x33f4,%edx
    1dc5:	bb fc 33 00 00       	mov    $0x33fc,%ebx
    1dca:	0f 44 d3             	cmove  %ebx,%edx
    1dcd:	50                   	push   %eax
    1dce:	51                   	push   %ecx
    1dcf:	52                   	push   %edx
    1dd0:	ff 35 20 65 00 00    	pushl  0x6520
    1dd6:	68 05 34 00 00       	push   $0x3405
    1ddb:	68 00 20 00 00       	push   $0x2000
    1de0:	6a 01                	push   $0x1
    1de2:	8d 9c 24 1c 20 00 00 	lea    0x201c(%esp),%ebx
    1de9:	53                   	push   %ebx
    1dea:	e8 fc ff ff ff       	call   1deb <send_msg+0x61>
    1def:	83 c4 20             	add    $0x20,%esp
    1df2:	54                   	push   %esp
    1df3:	6a 00                	push   $0x0
    1df5:	53                   	push   %ebx
    1df6:	68 20 61 00 00       	push   $0x6120
    1dfb:	e8 9f 0c 00 00       	call   2a9f <driver_post>
    1e00:	83 c4 10             	add    $0x10,%esp
    1e03:	85 c0                	test   %eax,%eax
    1e05:	78 08                	js     1e0f <send_msg+0x85>
    1e07:	81 c4 08 40 00 00    	add    $0x4008,%esp
    1e0d:	5b                   	pop    %ebx
    1e0e:	c3                   	ret    
    1e0f:	83 ec 0c             	sub    $0xc,%esp
    1e12:	8d 44 24 0c          	lea    0xc(%esp),%eax
    1e16:	50                   	push   %eax
    1e17:	e8 fc ff ff ff       	call   1e18 <send_msg+0x8e>
    1e1c:	c7 04 24 00 00 00 00 	movl   $0x0,(%esp)
    1e23:	e8 fc ff ff ff       	call   1e24 <send_msg+0x9a>

00001e28 <explode_bomb>:
    1e28:	f3 0f 1e fb          	endbr32 
    1e2c:	56                   	push   %esi
    1e2d:	5e                   	pop    %esi
    1e2e:	83 ec 18             	sub    $0x18,%esp
    1e31:	68 11 34 00 00       	push   $0x3411
    1e36:	e8 fc ff ff ff       	call   1e37 <explode_bomb+0xf>
    1e3b:	c7 04 24 1a 34 00 00 	movl   $0x341a,(%esp)
    1e42:	e8 fc ff ff ff       	call   1e43 <explode_bomb+0x1b>
    1e47:	c7 04 24 00 00 00 00 	movl   $0x0,(%esp)
    1e4e:	e8 37 ff ff ff       	call   1d8a <send_msg>
    1e53:	c7 04 24 28 33 00 00 	movl   $0x3328,(%esp)
    1e5a:	e8 fc ff ff ff       	call   1e5b <explode_bomb+0x33>
    1e5f:	c7 04 24 08 00 00 00 	movl   $0x8,(%esp)
    1e66:	e8 fc ff ff ff       	call   1e67 <explode_bomb+0x3f>

00001e6b <read_six_numbers>:
    1e6b:	f3 0f 1e fb          	endbr32 
    1e6f:	83 ec 0c             	sub    $0xc,%esp
    1e72:	8b 44 24 14          	mov    0x14(%esp),%eax
    1e76:	8d 50 14             	lea    0x14(%eax),%edx
    1e79:	52                   	push   %edx
    1e7a:	8d 50 10             	lea    0x10(%eax),%edx
    1e7d:	52                   	push   %edx
    1e7e:	8d 50 0c             	lea    0xc(%eax),%edx
    1e81:	52                   	push   %edx
    1e82:	8d 50 08             	lea    0x8(%eax),%edx
    1e85:	52                   	push   %edx
    1e86:	8d 50 04             	lea    0x4(%eax),%edx
    1e89:	52                   	push   %edx
    1e8a:	50                   	push   %eax
    1e8b:	68 31 34 00 00       	push   $0x3431
    1e90:	ff 74 24 2c          	pushl  0x2c(%esp)
    1e94:	e8 fc ff ff ff       	call   1e95 <read_six_numbers+0x2a>
    1e99:	83 c4 20             	add    $0x20,%esp
    1e9c:	83 f8 05             	cmp    $0x5,%eax
    1e9f:	7e 04                	jle    1ea5 <read_six_numbers+0x3a>
    1ea1:	83 c4 0c             	add    $0xc,%esp
    1ea4:	c3                   	ret    
    1ea5:	e8 7e ff ff ff       	call   1e28 <explode_bomb>

00001eaa <read_line>:
    1eaa:	f3 0f 1e fb          	endbr32 
    1eae:	57                   	push   %edi
    1eaf:	56                   	push   %esi
    1eb0:	53                   	push   %ebx
    1eb1:	e8 8f fe ff ff       	call   1d45 <skip>
    1eb6:	85 c0                	test   %eax,%eax
    1eb8:	74 45                	je     1eff <read_line+0x55>
    1eba:	8b 15 6c 67 00 00    	mov    0x676c,%edx
    1ec0:	6b da 55             	imul   $0x55,%edx,%ebx
    1ec3:	81 c3 80 67 00 00    	add    $0x6780,%ebx
    1ec9:	b9 ff ff ff ff       	mov    $0xffffffff,%ecx
    1ece:	b8 00 00 00 00       	mov    $0x0,%eax
    1ed3:	89 df                	mov    %ebx,%edi
    1ed5:	f2 ae                	repnz scas %es:(%edi),%al
    1ed7:	f7 d1                	not    %ecx
    1ed9:	83 e9 01             	sub    $0x1,%ecx
    1edc:	83 f9 53             	cmp    $0x53,%ecx
    1edf:	0f 8f 8e 00 00 00    	jg     1f73 <read_line+0xc9>
    1ee5:	6b c2 55             	imul   $0x55,%edx,%eax
    1ee8:	c6 84 01 7f 67 00 00 	movb   $0x0,0x677f(%ecx,%eax,1)
    1eef:	00 
    1ef0:	83 c2 01             	add    $0x1,%edx
    1ef3:	89 15 6c 67 00 00    	mov    %edx,0x676c
    1ef9:	89 d8                	mov    %ebx,%eax
    1efb:	5b                   	pop    %ebx
    1efc:	5e                   	pop    %esi
    1efd:	5f                   	pop    %edi
    1efe:	c3                   	ret    
    1eff:	a1 00 00 00 00       	mov    0x0,%eax
    1f04:	39 05 70 67 00 00    	cmp    %eax,0x6770
    1f0a:	74 1e                	je     1f2a <read_line+0x80>
    1f0c:	83 ec 0c             	sub    $0xc,%esp
    1f0f:	68 61 34 00 00       	push   $0x3461
    1f14:	e8 fc ff ff ff       	call   1f15 <read_line+0x6b>
    1f19:	83 c4 10             	add    $0x10,%esp
    1f1c:	85 c0                	test   %eax,%eax
    1f1e:	74 23                	je     1f43 <read_line+0x99>
    1f20:	83 ec 0c             	sub    $0xc,%esp
    1f23:	6a 00                	push   $0x0
    1f25:	e8 fc ff ff ff       	call   1f26 <read_line+0x7c>
    1f2a:	83 ec 0c             	sub    $0xc,%esp
    1f2d:	68 43 34 00 00       	push   $0x3443
    1f32:	e8 fc ff ff ff       	call   1f33 <read_line+0x89>
    1f37:	c7 04 24 08 00 00 00 	movl   $0x8,(%esp)
    1f3e:	e8 fc ff ff ff       	call   1f3f <read_line+0x95>
    1f43:	a1 00 00 00 00       	mov    0x0,%eax
    1f48:	a3 70 67 00 00       	mov    %eax,0x6770
    1f4d:	e8 f3 fd ff ff       	call   1d45 <skip>
    1f52:	85 c0                	test   %eax,%eax
    1f54:	0f 85 60 ff ff ff    	jne    1eba <read_line+0x10>
    1f5a:	83 ec 0c             	sub    $0xc,%esp
    1f5d:	68 43 34 00 00       	push   $0x3443
    1f62:	e8 fc ff ff ff       	call   1f63 <read_line+0xb9>
    1f67:	c7 04 24 00 00 00 00 	movl   $0x0,(%esp)
    1f6e:	e8 fc ff ff ff       	call   1f6f <read_line+0xc5>
    1f73:	83 ec 0c             	sub    $0xc,%esp
    1f76:	68 6c 34 00 00       	push   $0x346c
    1f7b:	e8 fc ff ff ff       	call   1f7c <read_line+0xd2>
    1f80:	a1 6c 67 00 00       	mov    0x676c,%eax
    1f85:	8d 50 01             	lea    0x1(%eax),%edx
    1f88:	89 15 6c 67 00 00    	mov    %edx,0x676c
    1f8e:	6b c0 55             	imul   $0x55,%eax,%eax
    1f91:	05 80 67 00 00       	add    $0x6780,%eax
    1f96:	ba 87 34 00 00       	mov    $0x3487,%edx
    1f9b:	b9 04 00 00 00       	mov    $0x4,%ecx
    1fa0:	89 c7                	mov    %eax,%edi
    1fa2:	89 d6                	mov    %edx,%esi
    1fa4:	f3 a5                	rep movsl %ds:(%esi),%es:(%edi)
    1fa6:	e8 7d fe ff ff       	call   1e28 <explode_bomb>

00001fab <phase_defused>:
    1fab:	f3 0f 1e fb          	endbr32 
    1faf:	83 ec 18             	sub    $0x18,%esp
    1fb2:	6a 01                	push   $0x1
    1fb4:	e8 d1 fd ff ff       	call   1d8a <send_msg>
    1fb9:	83 c4 10             	add    $0x10,%esp
    1fbc:	83 3d 6c 67 00 00 09 	cmpl   $0x9,0x676c
    1fc3:	74 04                	je     1fc9 <phase_defused+0x1e>
    1fc5:	83 c4 0c             	add    $0xc,%esp
    1fc8:	c3                   	ret    
    1fc9:	83 ec 0c             	sub    $0xc,%esp
    1fcc:	68 4c 33 00 00       	push   $0x334c
    1fd1:	e8 fc ff ff ff       	call   1fd2 <phase_defused+0x27>
    1fd6:	c7 04 24 78 33 00 00 	movl   $0x3378,(%esp)
    1fdd:	e8 fc ff ff ff       	call   1fde <phase_defused+0x33>
    1fe2:	83 c4 10             	add    $0x10,%esp
    1fe5:	eb de                	jmp    1fc5 <phase_defused+0x1a>

00001fe7 <sigalrm_handler>:
    1fe7:	f3 0f 1e fb          	endbr32 
    1feb:	56                   	push   %esi
    1fec:	5e                   	pop    %esi
    1fed:	83 ec 0c             	sub    $0xc,%esp
    1ff0:	6a 00                	push   $0x0
    1ff2:	68 10 37 00 00       	push   $0x3710
    1ff7:	6a 01                	push   $0x1
    1ff9:	ff 35 00 00 00 00    	pushl  0x0
    1fff:	e8 fc ff ff ff       	call   2000 <sigalrm_handler+0x19>
    2004:	c7 04 24 01 00 00 00 	movl   $0x1,(%esp)
    200b:	e8 fc ff ff ff       	call   200c <sigalrm_handler+0x25>

00002010 <rio_readlineb>:
    2010:	55                   	push   %ebp
    2011:	57                   	push   %edi
    2012:	56                   	push   %esi
    2013:	53                   	push   %ebx
    2014:	83 ec 1c             	sub    $0x1c,%esp
    2017:	89 d6                	mov    %edx,%esi
    2019:	83 f9 01             	cmp    $0x1,%ecx
    201c:	76 7e                	jbe    209c <rio_readlineb+0x8c>
    201e:	89 c3                	mov    %eax,%ebx
    2020:	8d 44 0a ff          	lea    -0x1(%edx,%ecx,1),%eax
    2024:	89 44 24 0c          	mov    %eax,0xc(%esp)
    2028:	bd 01 00 00 00       	mov    $0x1,%ebp
    202d:	8d 7b 0c             	lea    0xc(%ebx),%edi
    2030:	eb 4f                	jmp    2081 <rio_readlineb+0x71>
    2032:	e8 fc ff ff ff       	call   2033 <rio_readlineb+0x23>
    2037:	83 38 04             	cmpl   $0x4,(%eax)
    203a:	75 4e                	jne    208a <rio_readlineb+0x7a>
    203c:	83 ec 04             	sub    $0x4,%esp
    203f:	68 00 20 00 00       	push   $0x2000
    2044:	57                   	push   %edi
    2045:	ff 33                	pushl  (%ebx)
    2047:	e8 fc ff ff ff       	call   2048 <rio_readlineb+0x38>
    204c:	89 43 04             	mov    %eax,0x4(%ebx)
    204f:	83 c4 10             	add    $0x10,%esp
    2052:	85 c0                	test   %eax,%eax
    2054:	78 dc                	js     2032 <rio_readlineb+0x22>
    2056:	74 37                	je     208f <rio_readlineb+0x7f>
    2058:	89 7b 08             	mov    %edi,0x8(%ebx)
    205b:	8b 53 08             	mov    0x8(%ebx),%edx
    205e:	0f b6 0a             	movzbl (%edx),%ecx
    2061:	83 c2 01             	add    $0x1,%edx
    2064:	89 53 08             	mov    %edx,0x8(%ebx)
    2067:	83 e8 01             	sub    $0x1,%eax
    206a:	89 43 04             	mov    %eax,0x4(%ebx)
    206d:	83 c6 01             	add    $0x1,%esi
    2070:	88 4e ff             	mov    %cl,-0x1(%esi)
    2073:	80 f9 0a             	cmp    $0xa,%cl
    2076:	74 2f                	je     20a7 <rio_readlineb+0x97>
    2078:	83 c5 01             	add    $0x1,%ebp
    207b:	3b 74 24 0c          	cmp    0xc(%esp),%esi
    207f:	74 22                	je     20a3 <rio_readlineb+0x93>
    2081:	8b 43 04             	mov    0x4(%ebx),%eax
    2084:	85 c0                	test   %eax,%eax
    2086:	7e b4                	jle    203c <rio_readlineb+0x2c>
    2088:	eb d1                	jmp    205b <rio_readlineb+0x4b>
    208a:	b8 ff ff ff ff       	mov    $0xffffffff,%eax
    208f:	85 c0                	test   %eax,%eax
    2091:	75 21                	jne    20b4 <rio_readlineb+0xa4>
    2093:	83 fd 01             	cmp    $0x1,%ebp
    2096:	75 0f                	jne    20a7 <rio_readlineb+0x97>
    2098:	89 c5                	mov    %eax,%ebp
    209a:	eb 0e                	jmp    20aa <rio_readlineb+0x9a>
    209c:	bd 01 00 00 00       	mov    $0x1,%ebp
    20a1:	eb 04                	jmp    20a7 <rio_readlineb+0x97>
    20a3:	8b 74 24 0c          	mov    0xc(%esp),%esi
    20a7:	c6 06 00             	movb   $0x0,(%esi)
    20aa:	89 e8                	mov    %ebp,%eax
    20ac:	83 c4 1c             	add    $0x1c,%esp
    20af:	5b                   	pop    %ebx
    20b0:	5e                   	pop    %esi
    20b1:	5f                   	pop    %edi
    20b2:	5d                   	pop    %ebp
    20b3:	c3                   	ret    
    20b4:	bd ff ff ff ff       	mov    $0xffffffff,%ebp
    20b9:	eb ef                	jmp    20aa <rio_readlineb+0x9a>

000020bb <submitr>:
    20bb:	f3 0f 1e fb          	endbr32 
    20bf:	55                   	push   %ebp
    20c0:	57                   	push   %edi
    20c1:	56                   	push   %esi
    20c2:	53                   	push   %ebx
    20c3:	8d 84 24 00 60 ff ff 	lea    -0xa000(%esp),%eax
    20ca:	81 ec 00 10 00 00    	sub    $0x1000,%esp
    20d0:	83 0c 24 00          	orl    $0x0,(%esp)
    20d4:	39 c4                	cmp    %eax,%esp
    20d6:	75 f2                	jne    20ca <submitr+0xf>
    20d8:	83 ec 50             	sub    $0x50,%esp
    20db:	8b ac 24 78 a0 00 00 	mov    0xa078(%esp),%ebp
    20e2:	c7 84 24 24 20 00 00 	movl   $0x0,0x2024(%esp)
    20e9:	00 00 00 00 
    20ed:	6a 00                	push   $0x0
    20ef:	6a 01                	push   $0x1
    20f1:	6a 02                	push   $0x2
    20f3:	e8 fc ff ff ff       	call   20f4 <submitr+0x39>
    20f8:	89 44 24 18          	mov    %eax,0x18(%esp)
    20fc:	83 c4 10             	add    $0x10,%esp
    20ff:	85 c0                	test   %eax,%eax
    2101:	0f 88 26 01 00 00    	js     222d <submitr+0x172>
    2107:	83 ec 0c             	sub    $0xc,%esp
    210a:	ff b4 24 6c a0 00 00 	pushl  0xa06c(%esp)
    2111:	e8 fc ff ff ff       	call   2112 <submitr+0x57>
    2116:	83 c4 10             	add    $0x10,%esp
    2119:	85 c0                	test   %eax,%eax
    211b:	0f 84 61 01 00 00    	je     2282 <submitr+0x1c7>
    2121:	8d 9c 24 30 a0 00 00 	lea    0xa030(%esp),%ebx
    2128:	c7 84 24 30 a0 00 00 	movl   $0x0,0xa030(%esp)
    212f:	00 00 00 00 
    2133:	c7 84 24 34 a0 00 00 	movl   $0x0,0xa034(%esp)
    213a:	00 00 00 00 
    213e:	c7 84 24 38 a0 00 00 	movl   $0x0,0xa038(%esp)
    2145:	00 00 00 00 
    2149:	c7 84 24 3c a0 00 00 	movl   $0x0,0xa03c(%esp)
    2150:	00 00 00 00 
    2154:	66 c7 84 24 30 a0 00 	movw   $0x2,0xa030(%esp)
    215b:	00 02 00 
    215e:	6a 0c                	push   $0xc
    2160:	ff 70 0c             	pushl  0xc(%eax)
    2163:	8b 40 10             	mov    0x10(%eax),%eax
    2166:	ff 30                	pushl  (%eax)
    2168:	8d 84 24 40 a0 00 00 	lea    0xa040(%esp),%eax
    216f:	50                   	push   %eax
    2170:	e8 fc ff ff ff       	call   2171 <submitr+0xb6>
    2175:	0f b7 84 24 74 a0 00 	movzwl 0xa074(%esp),%eax
    217c:	00 
    217d:	66 c1 c0 08          	rol    $0x8,%ax
    2181:	66 89 84 24 42 a0 00 	mov    %ax,0xa042(%esp)
    2188:	00 
    2189:	83 c4 0c             	add    $0xc,%esp
    218c:	6a 10                	push   $0x10
    218e:	53                   	push   %ebx
    218f:	ff 74 24 14          	pushl  0x14(%esp)
    2193:	e8 fc ff ff ff       	call   2194 <submitr+0xd9>
    2198:	83 c4 10             	add    $0x10,%esp
    219b:	85 c0                	test   %eax,%eax
    219d:	0f 88 55 01 00 00    	js     22f8 <submitr+0x23d>
    21a3:	be ff ff ff ff       	mov    $0xffffffff,%esi
    21a8:	b8 00 00 00 00       	mov    $0x0,%eax
    21ad:	89 f1                	mov    %esi,%ecx
    21af:	89 ef                	mov    %ebp,%edi
    21b1:	f2 ae                	repnz scas %es:(%edi),%al
    21b3:	89 cb                	mov    %ecx,%ebx
    21b5:	f7 d3                	not    %ebx
    21b7:	89 f1                	mov    %esi,%ecx
    21b9:	8b bc 24 68 a0 00 00 	mov    0xa068(%esp),%edi
    21c0:	f2 ae                	repnz scas %es:(%edi),%al
    21c2:	89 4c 24 0c          	mov    %ecx,0xc(%esp)
    21c6:	89 f1                	mov    %esi,%ecx
    21c8:	8b bc 24 6c a0 00 00 	mov    0xa06c(%esp),%edi
    21cf:	f2 ae                	repnz scas %es:(%edi),%al
    21d1:	89 ca                	mov    %ecx,%edx
    21d3:	f7 d2                	not    %edx
    21d5:	89 f1                	mov    %esi,%ecx
    21d7:	8b bc 24 70 a0 00 00 	mov    0xa070(%esp),%edi
    21de:	f2 ae                	repnz scas %es:(%edi),%al
    21e0:	2b 54 24 0c          	sub    0xc(%esp),%edx
    21e4:	29 ca                	sub    %ecx,%edx
    21e6:	8d 44 5b fd          	lea    -0x3(%ebx,%ebx,2),%eax
    21ea:	8d 44 02 7b          	lea    0x7b(%edx,%eax,1),%eax
    21ee:	3d 00 20 00 00       	cmp    $0x2000,%eax
    21f3:	0f 87 67 01 00 00    	ja     2360 <submitr+0x2a5>
    21f9:	8d 94 24 24 40 00 00 	lea    0x4024(%esp),%edx
    2200:	b9 00 08 00 00       	mov    $0x800,%ecx
    2205:	b8 00 00 00 00       	mov    $0x0,%eax
    220a:	89 d7                	mov    %edx,%edi
    220c:	f3 ab                	rep stos %eax,%es:(%edi)
    220e:	b9 ff ff ff ff       	mov    $0xffffffff,%ecx
    2213:	89 ef                	mov    %ebp,%edi
    2215:	f2 ae                	repnz scas %es:(%edi),%al
    2217:	f7 d1                	not    %ecx
    2219:	89 cf                	mov    %ecx,%edi
    221b:	83 ef 01             	sub    $0x1,%edi
    221e:	0f 84 eb 04 00 00    	je     270f <submitr+0x654>
    2224:	89 eb                	mov    %ebp,%ebx
    2226:	89 d6                	mov    %edx,%esi
    2228:	e9 cc 01 00 00       	jmp    23f9 <submitr+0x33e>
    222d:	8b 84 24 78 a0 00 00 	mov    0xa078(%esp),%eax
    2234:	c7 00 45 72 72 6f    	movl   $0x6f727245,(%eax)
    223a:	c7 40 04 72 3a 20 43 	movl   $0x43203a72,0x4(%eax)
    2241:	c7 40 08 6c 69 65 6e 	movl   $0x6e65696c,0x8(%eax)
    2248:	c7 40 0c 74 20 75 6e 	movl   $0x6e752074,0xc(%eax)
    224f:	c7 40 10 61 62 6c 65 	movl   $0x656c6261,0x10(%eax)
    2256:	c7 40 14 20 74 6f 20 	movl   $0x206f7420,0x14(%eax)
    225d:	c7 40 18 63 72 65 61 	movl   $0x61657263,0x18(%eax)
    2264:	c7 40 1c 74 65 20 73 	movl   $0x73206574,0x1c(%eax)
    226b:	c7 40 20 6f 63 6b 65 	movl   $0x656b636f,0x20(%eax)
    2272:	66 c7 40 24 74 00    	movw   $0x74,0x24(%eax)
    2278:	b8 ff ff ff ff       	mov    $0xffffffff,%eax
    227d:	e9 3f 03 00 00       	jmp    25c1 <submitr+0x506>
    2282:	8b 84 24 78 a0 00 00 	mov    0xa078(%esp),%eax
    2289:	c7 00 45 72 72 6f    	movl   $0x6f727245,(%eax)
    228f:	c7 40 04 72 3a 20 44 	movl   $0x44203a72,0x4(%eax)
    2296:	c7 40 08 4e 53 20 69 	movl   $0x6920534e,0x8(%eax)
    229d:	c7 40 0c 73 20 75 6e 	movl   $0x6e752073,0xc(%eax)
    22a4:	c7 40 10 61 62 6c 65 	movl   $0x656c6261,0x10(%eax)
    22ab:	c7 40 14 20 74 6f 20 	movl   $0x206f7420,0x14(%eax)
    22b2:	c7 40 18 72 65 73 6f 	movl   $0x6f736572,0x18(%eax)
    22b9:	c7 40 1c 6c 76 65 20 	movl   $0x2065766c,0x1c(%eax)
    22c0:	c7 40 20 73 65 72 76 	movl   $0x76726573,0x20(%eax)
    22c7:	c7 40 24 65 72 20 61 	movl   $0x61207265,0x24(%eax)
    22ce:	c7 40 28 64 64 72 65 	movl   $0x65726464,0x28(%eax)
    22d5:	66 c7 40 2c 73 73    	movw   $0x7373,0x2c(%eax)
    22db:	c6 40 2e 00          	movb   $0x0,0x2e(%eax)
    22df:	83 ec 0c             	sub    $0xc,%esp
    22e2:	ff 74 24 14          	pushl  0x14(%esp)
    22e6:	e8 fc ff ff ff       	call   22e7 <submitr+0x22c>
    22eb:	83 c4 10             	add    $0x10,%esp
    22ee:	b8 ff ff ff ff       	mov    $0xffffffff,%eax
    22f3:	e9 c9 02 00 00       	jmp    25c1 <submitr+0x506>
    22f8:	8b 84 24 78 a0 00 00 	mov    0xa078(%esp),%eax
    22ff:	c7 00 45 72 72 6f    	movl   $0x6f727245,(%eax)
    2305:	c7 40 04 72 3a 20 55 	movl   $0x55203a72,0x4(%eax)
    230c:	c7 40 08 6e 61 62 6c 	movl   $0x6c62616e,0x8(%eax)
    2313:	c7 40 0c 65 20 74 6f 	movl   $0x6f742065,0xc(%eax)
    231a:	c7 40 10 20 63 6f 6e 	movl   $0x6e6f6320,0x10(%eax)
    2321:	c7 40 14 6e 65 63 74 	movl   $0x7463656e,0x14(%eax)
    2328:	c7 40 18 20 74 6f 20 	movl   $0x206f7420,0x18(%eax)
    232f:	c7 40 1c 74 68 65 20 	movl   $0x20656874,0x1c(%eax)
    2336:	c7 40 20 73 65 72 76 	movl   $0x76726573,0x20(%eax)
    233d:	66 c7 40 24 65 72    	movw   $0x7265,0x24(%eax)
    2343:	c6 40 26 00          	movb   $0x0,0x26(%eax)
    2347:	83 ec 0c             	sub    $0xc,%esp
    234a:	ff 74 24 14          	pushl  0x14(%esp)
    234e:	e8 fc ff ff ff       	call   234f <submitr+0x294>
    2353:	83 c4 10             	add    $0x10,%esp
    2356:	b8 ff ff ff ff       	mov    $0xffffffff,%eax
    235b:	e9 61 02 00 00       	jmp    25c1 <submitr+0x506>
    2360:	8b 84 24 78 a0 00 00 	mov    0xa078(%esp),%eax
    2367:	c7 00 45 72 72 6f    	movl   $0x6f727245,(%eax)
    236d:	c7 40 04 72 3a 20 52 	movl   $0x52203a72,0x4(%eax)
    2374:	c7 40 08 65 73 75 6c 	movl   $0x6c757365,0x8(%eax)
    237b:	c7 40 0c 74 20 73 74 	movl   $0x74732074,0xc(%eax)
    2382:	c7 40 10 72 69 6e 67 	movl   $0x676e6972,0x10(%eax)
    2389:	c7 40 14 20 74 6f 6f 	movl   $0x6f6f7420,0x14(%eax)
    2390:	c7 40 18 20 6c 61 72 	movl   $0x72616c20,0x18(%eax)
    2397:	c7 40 1c 67 65 2e 20 	movl   $0x202e6567,0x1c(%eax)
    239e:	c7 40 20 49 6e 63 72 	movl   $0x72636e49,0x20(%eax)
    23a5:	c7 40 24 65 61 73 65 	movl   $0x65736165,0x24(%eax)
    23ac:	c7 40 28 20 53 55 42 	movl   $0x42555320,0x28(%eax)
    23b3:	c7 40 2c 4d 49 54 52 	movl   $0x5254494d,0x2c(%eax)
    23ba:	c7 40 30 5f 4d 41 58 	movl   $0x58414d5f,0x30(%eax)
    23c1:	c7 40 34 42 55 46 00 	movl   $0x465542,0x34(%eax)
    23c8:	83 ec 0c             	sub    $0xc,%esp
    23cb:	ff 74 24 14          	pushl  0x14(%esp)
    23cf:	e8 fc ff ff ff       	call   23d0 <submitr+0x315>
    23d4:	83 c4 10             	add    $0x10,%esp
    23d7:	b8 ff ff ff ff       	mov    $0xffffffff,%eax
    23dc:	e9 e0 01 00 00       	jmp    25c1 <submitr+0x506>
    23e1:	3c 5f                	cmp    $0x5f,%al
    23e3:	75 76                	jne    245b <submitr+0x3a0>
    23e5:	88 06                	mov    %al,(%esi)
    23e7:	8d 76 01             	lea    0x1(%esi),%esi
    23ea:	83 c3 01             	add    $0x1,%ebx
    23ed:	8d 44 3d 00          	lea    0x0(%ebp,%edi,1),%eax
    23f1:	39 c3                	cmp    %eax,%ebx
    23f3:	0f 84 16 03 00 00    	je     270f <submitr+0x654>
    23f9:	0f b6 03             	movzbl (%ebx),%eax
    23fc:	8d 50 d6             	lea    -0x2a(%eax),%edx
    23ff:	80 fa 0f             	cmp    $0xf,%dl
    2402:	77 dd                	ja     23e1 <submitr+0x326>
    2404:	b9 d9 ff 00 00       	mov    $0xffd9,%ecx
    2409:	0f a3 d1             	bt     %edx,%ecx
    240c:	72 d7                	jb     23e5 <submitr+0x32a>
    240e:	3c 5f                	cmp    $0x5f,%al
    2410:	74 d3                	je     23e5 <submitr+0x32a>
    2412:	8d 50 e0             	lea    -0x20(%eax),%edx
    2415:	80 fa 5f             	cmp    $0x5f,%dl
    2418:	76 08                	jbe    2422 <submitr+0x367>
    241a:	3c 09                	cmp    $0x9,%al
    241c:	0f 85 97 02 00 00    	jne    26b9 <submitr+0x5fe>
    2422:	83 ec 0c             	sub    $0xc,%esp
    2425:	0f b6 c0             	movzbl %al,%eax
    2428:	50                   	push   %eax
    2429:	68 1a 38 00 00       	push   $0x381a
    242e:	6a 08                	push   $0x8
    2430:	6a 01                	push   $0x1
    2432:	8d 44 24 34          	lea    0x34(%esp),%eax
    2436:	50                   	push   %eax
    2437:	e8 fc ff ff ff       	call   2438 <submitr+0x37d>
    243c:	0f b6 44 24 38       	movzbl 0x38(%esp),%eax
    2441:	88 06                	mov    %al,(%esi)
    2443:	0f b6 44 24 39       	movzbl 0x39(%esp),%eax
    2448:	88 46 01             	mov    %al,0x1(%esi)
    244b:	0f b6 44 24 3a       	movzbl 0x3a(%esp),%eax
    2450:	88 46 02             	mov    %al,0x2(%esi)
    2453:	83 c4 20             	add    $0x20,%esp
    2456:	8d 76 03             	lea    0x3(%esi),%esi
    2459:	eb 8f                	jmp    23ea <submitr+0x32f>
    245b:	89 c2                	mov    %eax,%edx
    245d:	83 e2 df             	and    $0xffffffdf,%edx
    2460:	83 ea 41             	sub    $0x41,%edx
    2463:	80 fa 19             	cmp    $0x19,%dl
    2466:	0f 86 79 ff ff ff    	jbe    23e5 <submitr+0x32a>
    246c:	3c 20                	cmp    $0x20,%al
    246e:	75 a2                	jne    2412 <submitr+0x357>
    2470:	c6 06 2b             	movb   $0x2b,(%esi)
    2473:	8d 76 01             	lea    0x1(%esi),%esi
    2476:	e9 6f ff ff ff       	jmp    23ea <submitr+0x32f>
    247b:	01 c6                	add    %eax,%esi
    247d:	29 c3                	sub    %eax,%ebx
    247f:	0f 84 ec 02 00 00    	je     2771 <submitr+0x6b6>
    2485:	83 ec 04             	sub    $0x4,%esp
    2488:	53                   	push   %ebx
    2489:	56                   	push   %esi
    248a:	57                   	push   %edi
    248b:	e8 fc ff ff ff       	call   248c <submitr+0x3d1>
    2490:	83 c4 10             	add    $0x10,%esp
    2493:	85 c0                	test   %eax,%eax
    2495:	7f e4                	jg     247b <submitr+0x3c0>
    2497:	e8 fc ff ff ff       	call   2498 <submitr+0x3dd>
    249c:	83 38 04             	cmpl   $0x4,(%eax)
    249f:	0f 85 a8 01 00 00    	jne    264d <submitr+0x592>
    24a5:	89 e8                	mov    %ebp,%eax
    24a7:	eb d2                	jmp    247b <submitr+0x3c0>
    24a9:	8b 84 24 78 a0 00 00 	mov    0xa078(%esp),%eax
    24b0:	c7 00 45 72 72 6f    	movl   $0x6f727245,(%eax)
    24b6:	c7 40 04 72 3a 20 43 	movl   $0x43203a72,0x4(%eax)
    24bd:	c7 40 08 6c 69 65 6e 	movl   $0x6e65696c,0x8(%eax)
    24c4:	c7 40 0c 74 20 75 6e 	movl   $0x6e752074,0xc(%eax)
    24cb:	c7 40 10 61 62 6c 65 	movl   $0x656c6261,0x10(%eax)
    24d2:	c7 40 14 20 74 6f 20 	movl   $0x206f7420,0x14(%eax)
    24d9:	c7 40 18 72 65 61 64 	movl   $0x64616572,0x18(%eax)
    24e0:	c7 40 1c 20 66 69 72 	movl   $0x72696620,0x1c(%eax)
    24e7:	c7 40 20 73 74 20 68 	movl   $0x68207473,0x20(%eax)
    24ee:	c7 40 24 65 61 64 65 	movl   $0x65646165,0x24(%eax)
    24f5:	c7 40 28 72 20 66 72 	movl   $0x72662072,0x28(%eax)
    24fc:	c7 40 2c 6f 6d 20 73 	movl   $0x73206d6f,0x2c(%eax)
    2503:	c7 40 30 65 72 76 65 	movl   $0x65767265,0x30(%eax)
    250a:	66 c7 40 34 72 00    	movw   $0x72,0x34(%eax)
    2510:	83 ec 0c             	sub    $0xc,%esp
    2513:	ff 74 24 14          	pushl  0x14(%esp)
    2517:	e8 fc ff ff ff       	call   2518 <submitr+0x45d>
    251c:	83 c4 10             	add    $0x10,%esp
    251f:	b8 ff ff ff ff       	mov    $0xffffffff,%eax
    2524:	e9 98 00 00 00       	jmp    25c1 <submitr+0x506>
    2529:	83 ec 08             	sub    $0x8,%esp
    252c:	8d 54 24 28          	lea    0x28(%esp),%edx
    2530:	52                   	push   %edx
    2531:	50                   	push   %eax
    2532:	68 34 37 00 00       	push   $0x3734
    2537:	6a ff                	push   $0xffffffff
    2539:	6a 01                	push   $0x1
    253b:	ff b4 24 94 a0 00 00 	pushl  0xa094(%esp)
    2542:	e8 fc ff ff ff       	call   2543 <submitr+0x488>
    2547:	83 c4 14             	add    $0x14,%esp
    254a:	ff 74 24 14          	pushl  0x14(%esp)
    254e:	e8 fc ff ff ff       	call   254f <submitr+0x494>
    2553:	83 c4 10             	add    $0x10,%esp
    2556:	b8 ff ff ff ff       	mov    $0xffffffff,%eax
    255b:	eb 64                	jmp    25c1 <submitr+0x506>
    255d:	b9 00 20 00 00       	mov    $0x2000,%ecx
    2562:	8d 94 24 24 60 00 00 	lea    0x6024(%esp),%edx
    2569:	8d 84 24 24 80 00 00 	lea    0x8024(%esp),%eax
    2570:	e8 9b fa ff ff       	call   2010 <rio_readlineb>
    2575:	85 c0                	test   %eax,%eax
    2577:	7e 53                	jle    25cc <submitr+0x511>
    2579:	83 ec 08             	sub    $0x8,%esp
    257c:	8d 84 24 2c 60 00 00 	lea    0x602c(%esp),%eax
    2583:	50                   	push   %eax
    2584:	ff b4 24 84 a0 00 00 	pushl  0xa084(%esp)
    258b:	e8 fc ff ff ff       	call   258c <submitr+0x4d1>
    2590:	83 c4 04             	add    $0x4,%esp
    2593:	ff 74 24 14          	pushl  0x14(%esp)
    2597:	e8 fc ff ff ff       	call   2598 <submitr+0x4dd>
    259c:	bf 35 38 00 00       	mov    $0x3835,%edi
    25a1:	b9 03 00 00 00       	mov    $0x3,%ecx
    25a6:	8b b4 24 88 a0 00 00 	mov    0xa088(%esp),%esi
    25ad:	f3 a6                	repz cmpsb %es:(%edi),%ds:(%esi)
    25af:	0f 97 c0             	seta   %al
    25b2:	1c 00                	sbb    $0x0,%al
    25b4:	83 c4 10             	add    $0x10,%esp
    25b7:	84 c0                	test   %al,%al
    25b9:	0f 95 c0             	setne  %al
    25bc:	0f b6 c0             	movzbl %al,%eax
    25bf:	f7 d8                	neg    %eax
    25c1:	81 c4 4c a0 00 00    	add    $0xa04c,%esp
    25c7:	5b                   	pop    %ebx
    25c8:	5e                   	pop    %esi
    25c9:	5f                   	pop    %edi
    25ca:	5d                   	pop    %ebp
    25cb:	c3                   	ret    
    25cc:	8b 84 24 78 a0 00 00 	mov    0xa078(%esp),%eax
    25d3:	c7 00 45 72 72 6f    	movl   $0x6f727245,(%eax)
    25d9:	c7 40 04 72 3a 20 43 	movl   $0x43203a72,0x4(%eax)
    25e0:	c7 40 08 6c 69 65 6e 	movl   $0x6e65696c,0x8(%eax)
    25e7:	c7 40 0c 74 20 75 6e 	movl   $0x6e752074,0xc(%eax)
    25ee:	c7 40 10 61 62 6c 65 	movl   $0x656c6261,0x10(%eax)
    25f5:	c7 40 14 20 74 6f 20 	movl   $0x206f7420,0x14(%eax)
    25fc:	c7 40 18 72 65 61 64 	movl   $0x64616572,0x18(%eax)
    2603:	c7 40 1c 20 73 74 61 	movl   $0x61747320,0x1c(%eax)
    260a:	c7 40 20 74 75 73 20 	movl   $0x20737574,0x20(%eax)
    2611:	c7 40 24 6d 65 73 73 	movl   $0x7373656d,0x24(%eax)
    2618:	c7 40 28 61 67 65 20 	movl   $0x20656761,0x28(%eax)
    261f:	c7 40 2c 66 72 6f 6d 	movl   $0x6d6f7266,0x2c(%eax)
    2626:	c7 40 30 20 73 65 72 	movl   $0x72657320,0x30(%eax)
    262d:	c7 40 34 76 65 72 00 	movl   $0x726576,0x34(%eax)
    2634:	83 ec 0c             	sub    $0xc,%esp
    2637:	ff 74 24 14          	pushl  0x14(%esp)
    263b:	e8 fc ff ff ff       	call   263c <submitr+0x581>
    2640:	83 c4 10             	add    $0x10,%esp
    2643:	b8 ff ff ff ff       	mov    $0xffffffff,%eax
    2648:	e9 74 ff ff ff       	jmp    25c1 <submitr+0x506>
    264d:	8b 84 24 78 a0 00 00 	mov    0xa078(%esp),%eax
    2654:	c7 00 45 72 72 6f    	movl   $0x6f727245,(%eax)
    265a:	c7 40 04 72 3a 20 43 	movl   $0x43203a72,0x4(%eax)
    2661:	c7 40 08 6c 69 65 6e 	movl   $0x6e65696c,0x8(%eax)
    2668:	c7 40 0c 74 20 75 6e 	movl   $0x6e752074,0xc(%eax)
    266f:	c7 40 10 61 62 6c 65 	movl   $0x656c6261,0x10(%eax)
    2676:	c7 40 14 20 74 6f 20 	movl   $0x206f7420,0x14(%eax)
    267d:	c7 40 18 77 72 69 74 	movl   $0x74697277,0x18(%eax)
    2684:	c7 40 1c 65 20 74 6f 	movl   $0x6f742065,0x1c(%eax)
    268b:	c7 40 20 20 74 68 65 	movl   $0x65687420,0x20(%eax)
    2692:	c7 40 24 20 73 65 72 	movl   $0x72657320,0x24(%eax)
    2699:	c7 40 28 76 65 72 00 	movl   $0x726576,0x28(%eax)
    26a0:	83 ec 0c             	sub    $0xc,%esp
    26a3:	ff 74 24 14          	pushl  0x14(%esp)
    26a7:	e8 fc ff ff ff       	call   26a8 <submitr+0x5ed>
    26ac:	83 c4 10             	add    $0x10,%esp
    26af:	b8 ff ff ff ff       	mov    $0xffffffff,%eax
    26b4:	e9 08 ff ff ff       	jmp    25c1 <submitr+0x506>
    26b9:	a1 64 37 00 00       	mov    0x3764,%eax
    26be:	8b bc 24 78 a0 00 00 	mov    0xa078(%esp),%edi
    26c5:	89 07                	mov    %eax,(%edi)
    26c7:	a1 a3 37 00 00       	mov    0x37a3,%eax
    26cc:	8b bc 24 78 a0 00 00 	mov    0xa078(%esp),%edi
    26d3:	89 47 3f             	mov    %eax,0x3f(%edi)
    26d6:	8b 84 24 78 a0 00 00 	mov    0xa078(%esp),%eax
    26dd:	8d 78 04             	lea    0x4(%eax),%edi
    26e0:	83 e7 fc             	and    $0xfffffffc,%edi
    26e3:	29 f8                	sub    %edi,%eax
    26e5:	be 64 37 00 00       	mov    $0x3764,%esi
    26ea:	29 c6                	sub    %eax,%esi
    26ec:	83 c0 43             	add    $0x43,%eax
    26ef:	c1 e8 02             	shr    $0x2,%eax
    26f2:	89 c1                	mov    %eax,%ecx
    26f4:	f3 a5                	rep movsl %ds:(%esi),%es:(%edi)
    26f6:	83 ec 0c             	sub    $0xc,%esp
    26f9:	ff 74 24 14          	pushl  0x14(%esp)
    26fd:	e8 fc ff ff ff       	call   26fe <submitr+0x643>
    2702:	83 c4 10             	add    $0x10,%esp
    2705:	b8 ff ff ff ff       	mov    $0xffffffff,%eax
    270a:	e9 b2 fe ff ff       	jmp    25c1 <submitr+0x506>
    270f:	8d 84 24 24 40 00 00 	lea    0x4024(%esp),%eax
    2716:	50                   	push   %eax
    2717:	ff b4 24 74 a0 00 00 	pushl  0xa074(%esp)
    271e:	ff b4 24 74 a0 00 00 	pushl  0xa074(%esp)
    2725:	ff b4 24 74 a0 00 00 	pushl  0xa074(%esp)
    272c:	68 a8 37 00 00       	push   $0x37a8
    2731:	68 00 20 00 00       	push   $0x2000
    2736:	6a 01                	push   $0x1
    2738:	8d bc 24 40 60 00 00 	lea    0x6040(%esp),%edi
    273f:	57                   	push   %edi
    2740:	e8 fc ff ff ff       	call   2741 <submitr+0x686>
    2745:	b9 ff ff ff ff       	mov    $0xffffffff,%ecx
    274a:	b8 00 00 00 00       	mov    $0x0,%eax
    274f:	f2 ae                	repnz scas %es:(%edi),%al
    2751:	f7 d1                	not    %ecx
    2753:	83 c4 20             	add    $0x20,%esp
    2756:	8d b4 24 24 60 00 00 	lea    0x6024(%esp),%esi
    275d:	bd 00 00 00 00       	mov    $0x0,%ebp
    2762:	89 cb                	mov    %ecx,%ebx
    2764:	83 eb 01             	sub    $0x1,%ebx
    2767:	8b 7c 24 08          	mov    0x8(%esp),%edi
    276b:	0f 85 14 fd ff ff    	jne    2485 <submitr+0x3ca>
    2771:	8b 44 24 08          	mov    0x8(%esp),%eax
    2775:	89 84 24 24 80 00 00 	mov    %eax,0x8024(%esp)
    277c:	c7 84 24 28 80 00 00 	movl   $0x0,0x8028(%esp)
    2783:	00 00 00 00 
    2787:	8d 84 24 30 80 00 00 	lea    0x8030(%esp),%eax
    278e:	89 84 24 2c 80 00 00 	mov    %eax,0x802c(%esp)
    2795:	b9 00 20 00 00       	mov    $0x2000,%ecx
    279a:	8d 94 24 24 60 00 00 	lea    0x6024(%esp),%edx
    27a1:	8d 84 24 24 80 00 00 	lea    0x8024(%esp),%eax
    27a8:	e8 63 f8 ff ff       	call   2010 <rio_readlineb>
    27ad:	85 c0                	test   %eax,%eax
    27af:	0f 8e f4 fc ff ff    	jle    24a9 <submitr+0x3ee>
    27b5:	83 ec 0c             	sub    $0xc,%esp
    27b8:	8d 44 24 2c          	lea    0x2c(%esp),%eax
    27bc:	50                   	push   %eax
    27bd:	8d 84 24 30 20 00 00 	lea    0x2030(%esp),%eax
    27c4:	50                   	push   %eax
    27c5:	8d 84 24 38 20 00 00 	lea    0x2038(%esp),%eax
    27cc:	50                   	push   %eax
    27cd:	68 21 38 00 00       	push   $0x3821
    27d2:	8d 84 24 40 60 00 00 	lea    0x6040(%esp),%eax
    27d9:	50                   	push   %eax
    27da:	e8 fc ff ff ff       	call   27db <submitr+0x720>
    27df:	8b 84 24 40 20 00 00 	mov    0x2040(%esp),%eax
    27e6:	83 c4 20             	add    $0x20,%esp
    27e9:	3d c8 00 00 00       	cmp    $0xc8,%eax
    27ee:	0f 85 35 fd ff ff    	jne    2529 <submitr+0x46e>
    27f4:	8d 9c 24 24 60 00 00 	lea    0x6024(%esp),%ebx
    27fb:	bf 32 38 00 00       	mov    $0x3832,%edi
    2800:	b9 03 00 00 00       	mov    $0x3,%ecx
    2805:	89 de                	mov    %ebx,%esi
    2807:	f3 a6                	repz cmpsb %es:(%edi),%ds:(%esi)
    2809:	0f 97 c0             	seta   %al
    280c:	1c 00                	sbb    $0x0,%al
    280e:	84 c0                	test   %al,%al
    2810:	0f 84 47 fd ff ff    	je     255d <submitr+0x4a2>
    2816:	b9 00 20 00 00       	mov    $0x2000,%ecx
    281b:	89 da                	mov    %ebx,%edx
    281d:	8d 84 24 24 80 00 00 	lea    0x8024(%esp),%eax
    2824:	e8 e7 f7 ff ff       	call   2010 <rio_readlineb>
    2829:	85 c0                	test   %eax,%eax
    282b:	7f ce                	jg     27fb <submitr+0x740>
    282d:	8b 84 24 78 a0 00 00 	mov    0xa078(%esp),%eax
    2834:	c7 00 45 72 72 6f    	movl   $0x6f727245,(%eax)
    283a:	c7 40 04 72 3a 20 43 	movl   $0x43203a72,0x4(%eax)
    2841:	c7 40 08 6c 69 65 6e 	movl   $0x6e65696c,0x8(%eax)
    2848:	c7 40 0c 74 20 75 6e 	movl   $0x6e752074,0xc(%eax)
    284f:	c7 40 10 61 62 6c 65 	movl   $0x656c6261,0x10(%eax)
    2856:	c7 40 14 20 74 6f 20 	movl   $0x206f7420,0x14(%eax)
    285d:	c7 40 18 72 65 61 64 	movl   $0x64616572,0x18(%eax)
    2864:	c7 40 1c 20 68 65 61 	movl   $0x61656820,0x1c(%eax)
    286b:	c7 40 20 64 65 72 73 	movl   $0x73726564,0x20(%eax)
    2872:	c7 40 24 20 66 72 6f 	movl   $0x6f726620,0x24(%eax)
    2879:	c7 40 28 6d 20 73 65 	movl   $0x6573206d,0x28(%eax)
    2880:	c7 40 2c 72 76 65 72 	movl   $0x72657672,0x2c(%eax)
    2887:	c6 40 30 00          	movb   $0x0,0x30(%eax)
    288b:	83 ec 0c             	sub    $0xc,%esp
    288e:	ff 74 24 14          	pushl  0x14(%esp)
    2892:	e8 fc ff ff ff       	call   2893 <submitr+0x7d8>
    2897:	83 c4 10             	add    $0x10,%esp
    289a:	b8 ff ff ff ff       	mov    $0xffffffff,%eax
    289f:	e9 1d fd ff ff       	jmp    25c1 <submitr+0x506>

000028a4 <init_timeout>:
    28a4:	f3 0f 1e fb          	endbr32 
    28a8:	53                   	push   %ebx
    28a9:	83 ec 08             	sub    $0x8,%esp
    28ac:	8b 5c 24 10          	mov    0x10(%esp),%ebx
    28b0:	85 db                	test   %ebx,%ebx
    28b2:	75 05                	jne    28b9 <init_timeout+0x15>
    28b4:	83 c4 08             	add    $0x8,%esp
    28b7:	5b                   	pop    %ebx
    28b8:	c3                   	ret    
    28b9:	83 ec 08             	sub    $0x8,%esp
    28bc:	68 e7 1f 00 00       	push   $0x1fe7
    28c1:	6a 0e                	push   $0xe
    28c3:	e8 fc ff ff ff       	call   28c4 <init_timeout+0x20>
    28c8:	85 db                	test   %ebx,%ebx
    28ca:	b8 00 00 00 00       	mov    $0x0,%eax
    28cf:	0f 48 d8             	cmovs  %eax,%ebx
    28d2:	89 1c 24             	mov    %ebx,(%esp)
    28d5:	e8 fc ff ff ff       	call   28d6 <init_timeout+0x32>
    28da:	83 c4 10             	add    $0x10,%esp
    28dd:	eb d5                	jmp    28b4 <init_timeout+0x10>

000028df <init_driver>:
    28df:	f3 0f 1e fb          	endbr32 
    28e3:	57                   	push   %edi
    28e4:	56                   	push   %esi
    28e5:	53                   	push   %ebx
    28e6:	83 ec 18             	sub    $0x18,%esp
    28e9:	8b 74 24 28          	mov    0x28(%esp),%esi
    28ed:	6a 01                	push   $0x1
    28ef:	6a 0d                	push   $0xd
    28f1:	e8 fc ff ff ff       	call   28f2 <init_driver+0x13>
    28f6:	83 c4 08             	add    $0x8,%esp
    28f9:	6a 01                	push   $0x1
    28fb:	6a 1d                	push   $0x1d
    28fd:	e8 fc ff ff ff       	call   28fe <init_driver+0x1f>
    2902:	83 c4 08             	add    $0x8,%esp
    2905:	6a 01                	push   $0x1
    2907:	6a 1d                	push   $0x1d
    2909:	e8 fc ff ff ff       	call   290a <init_driver+0x2b>
    290e:	83 c4 0c             	add    $0xc,%esp
    2911:	6a 00                	push   $0x0
    2913:	6a 01                	push   $0x1
    2915:	6a 02                	push   $0x2
    2917:	e8 fc ff ff ff       	call   2918 <init_driver+0x39>
    291c:	83 c4 10             	add    $0x10,%esp
    291f:	85 c0                	test   %eax,%eax
    2921:	0f 88 94 00 00 00    	js     29bb <init_driver+0xdc>
    2927:	89 c3                	mov    %eax,%ebx
    2929:	83 ec 0c             	sub    $0xc,%esp
    292c:	68 cf 36 00 00       	push   $0x36cf
    2931:	e8 fc ff ff ff       	call   2932 <init_driver+0x53>
    2936:	83 c4 10             	add    $0x10,%esp
    2939:	85 c0                	test   %eax,%eax
    293b:	0f 84 c5 00 00 00    	je     2a06 <init_driver+0x127>
    2941:	89 e7                	mov    %esp,%edi
    2943:	c7 04 24 00 00 00 00 	movl   $0x0,(%esp)
    294a:	c7 44 24 04 00 00 00 	movl   $0x0,0x4(%esp)
    2951:	00 
    2952:	c7 44 24 08 00 00 00 	movl   $0x0,0x8(%esp)
    2959:	00 
    295a:	c7 44 24 0c 00 00 00 	movl   $0x0,0xc(%esp)
    2961:	00 
    2962:	66 c7 04 24 02 00    	movw   $0x2,(%esp)
    2968:	6a 0c                	push   $0xc
    296a:	ff 70 0c             	pushl  0xc(%eax)
    296d:	8b 40 10             	mov    0x10(%eax),%eax
    2970:	ff 30                	pushl  (%eax)
    2972:	8d 44 24 10          	lea    0x10(%esp),%eax
    2976:	50                   	push   %eax
    2977:	e8 fc ff ff ff       	call   2978 <init_driver+0x99>
    297c:	66 c7 44 24 12 3b 6c 	movw   $0x6c3b,0x12(%esp)
    2983:	83 c4 0c             	add    $0xc,%esp
    2986:	6a 10                	push   $0x10
    2988:	57                   	push   %edi
    2989:	53                   	push   %ebx
    298a:	e8 fc ff ff ff       	call   298b <init_driver+0xac>
    298f:	83 c4 10             	add    $0x10,%esp
    2992:	85 c0                	test   %eax,%eax
    2994:	0f 88 d8 00 00 00    	js     2a72 <init_driver+0x193>
    299a:	83 ec 0c             	sub    $0xc,%esp
    299d:	53                   	push   %ebx
    299e:	e8 fc ff ff ff       	call   299f <init_driver+0xc0>
    29a3:	66 c7 06 4f 4b       	movw   $0x4b4f,(%esi)
    29a8:	c6 46 02 00          	movb   $0x0,0x2(%esi)
    29ac:	83 c4 10             	add    $0x10,%esp
    29af:	b8 00 00 00 00       	mov    $0x0,%eax
    29b4:	83 c4 10             	add    $0x10,%esp
    29b7:	5b                   	pop    %ebx
    29b8:	5e                   	pop    %esi
    29b9:	5f                   	pop    %edi
    29ba:	c3                   	ret    
    29bb:	c7 06 45 72 72 6f    	movl   $0x6f727245,(%esi)
    29c1:	c7 46 04 72 3a 20 43 	movl   $0x43203a72,0x4(%esi)
    29c8:	c7 46 08 6c 69 65 6e 	movl   $0x6e65696c,0x8(%esi)
    29cf:	c7 46 0c 74 20 75 6e 	movl   $0x6e752074,0xc(%esi)
    29d6:	c7 46 10 61 62 6c 65 	movl   $0x656c6261,0x10(%esi)
    29dd:	c7 46 14 20 74 6f 20 	movl   $0x206f7420,0x14(%esi)
    29e4:	c7 46 18 63 72 65 61 	movl   $0x61657263,0x18(%esi)
    29eb:	c7 46 1c 74 65 20 73 	movl   $0x73206574,0x1c(%esi)
    29f2:	c7 46 20 6f 63 6b 65 	movl   $0x656b636f,0x20(%esi)
    29f9:	66 c7 46 24 74 00    	movw   $0x74,0x24(%esi)
    29ff:	b8 ff ff ff ff       	mov    $0xffffffff,%eax
    2a04:	eb ae                	jmp    29b4 <init_driver+0xd5>
    2a06:	c7 06 45 72 72 6f    	movl   $0x6f727245,(%esi)
    2a0c:	c7 46 04 72 3a 20 44 	movl   $0x44203a72,0x4(%esi)
    2a13:	c7 46 08 4e 53 20 69 	movl   $0x6920534e,0x8(%esi)
    2a1a:	c7 46 0c 73 20 75 6e 	movl   $0x6e752073,0xc(%esi)
    2a21:	c7 46 10 61 62 6c 65 	movl   $0x656c6261,0x10(%esi)
    2a28:	c7 46 14 20 74 6f 20 	movl   $0x206f7420,0x14(%esi)
    2a2f:	c7 46 18 72 65 73 6f 	movl   $0x6f736572,0x18(%esi)
    2a36:	c7 46 1c 6c 76 65 20 	movl   $0x2065766c,0x1c(%esi)
    2a3d:	c7 46 20 73 65 72 76 	movl   $0x76726573,0x20(%esi)
    2a44:	c7 46 24 65 72 20 61 	movl   $0x61207265,0x24(%esi)
    2a4b:	c7 46 28 64 64 72 65 	movl   $0x65726464,0x28(%esi)
    2a52:	66 c7 46 2c 73 73    	movw   $0x7373,0x2c(%esi)
    2a58:	c6 46 2e 00          	movb   $0x0,0x2e(%esi)
    2a5c:	83 ec 0c             	sub    $0xc,%esp
    2a5f:	53                   	push   %ebx
    2a60:	e8 fc ff ff ff       	call   2a61 <init_driver+0x182>
    2a65:	83 c4 10             	add    $0x10,%esp
    2a68:	b8 ff ff ff ff       	mov    $0xffffffff,%eax
    2a6d:	e9 42 ff ff ff       	jmp    29b4 <init_driver+0xd5>
    2a72:	83 ec 0c             	sub    $0xc,%esp
    2a75:	68 cf 36 00 00       	push   $0x36cf
    2a7a:	68 f4 37 00 00       	push   $0x37f4
    2a7f:	6a ff                	push   $0xffffffff
    2a81:	6a 01                	push   $0x1
    2a83:	56                   	push   %esi
    2a84:	e8 fc ff ff ff       	call   2a85 <init_driver+0x1a6>
    2a89:	83 c4 14             	add    $0x14,%esp
    2a8c:	53                   	push   %ebx
    2a8d:	e8 fc ff ff ff       	call   2a8e <init_driver+0x1af>
    2a92:	83 c4 10             	add    $0x10,%esp
    2a95:	b8 ff ff ff ff       	mov    $0xffffffff,%eax
    2a9a:	e9 15 ff ff ff       	jmp    29b4 <init_driver+0xd5>

00002a9f <driver_post>:
    2a9f:	f3 0f 1e fb          	endbr32 
    2aa3:	53                   	push   %ebx
    2aa4:	83 ec 08             	sub    $0x8,%esp
    2aa7:	8b 54 24 10          	mov    0x10(%esp),%edx
    2aab:	8b 44 24 18          	mov    0x18(%esp),%eax
    2aaf:	8b 5c 24 1c          	mov    0x1c(%esp),%ebx
    2ab3:	85 c0                	test   %eax,%eax
    2ab5:	75 17                	jne    2ace <driver_post+0x2f>
    2ab7:	85 d2                	test   %edx,%edx
    2ab9:	74 05                	je     2ac0 <driver_post+0x21>
    2abb:	80 3a 00             	cmpb   $0x0,(%edx)
    2abe:	75 34                	jne    2af4 <driver_post+0x55>
    2ac0:	66 c7 03 4f 4b       	movw   $0x4b4f,(%ebx)
    2ac5:	c6 43 02 00          	movb   $0x0,0x2(%ebx)
    2ac9:	83 c4 08             	add    $0x8,%esp
    2acc:	5b                   	pop    %ebx
    2acd:	c3                   	ret    
    2ace:	83 ec 04             	sub    $0x4,%esp
    2ad1:	ff 74 24 18          	pushl  0x18(%esp)
    2ad5:	68 38 38 00 00       	push   $0x3838
    2ada:	6a 01                	push   $0x1
    2adc:	e8 fc ff ff ff       	call   2add <driver_post+0x3e>
    2ae1:	66 c7 03 4f 4b       	movw   $0x4b4f,(%ebx)
    2ae6:	c6 43 02 00          	movb   $0x0,0x2(%ebx)
    2aea:	83 c4 10             	add    $0x10,%esp
    2aed:	b8 00 00 00 00       	mov    $0x0,%eax
    2af2:	eb d5                	jmp    2ac9 <driver_post+0x2a>
    2af4:	83 ec 04             	sub    $0x4,%esp
    2af7:	53                   	push   %ebx
    2af8:	ff 74 24 1c          	pushl  0x1c(%esp)
    2afc:	68 4f 38 00 00       	push   $0x384f
    2b01:	52                   	push   %edx
    2b02:	68 5e 38 00 00       	push   $0x385e
    2b07:	68 6c 3b 00 00       	push   $0x3b6c
    2b0c:	68 cf 36 00 00       	push   $0x36cf
    2b11:	e8 a5 f5 ff ff       	call   20bb <submitr>
    2b16:	83 c4 20             	add    $0x20,%esp
    2b19:	eb ae                	jmp    2ac9 <driver_post+0x2a>
    2b1b:	66 90                	xchg   %ax,%ax
    2b1d:	66 90                	xchg   %ax,%ax
    2b1f:	90                   	nop

00002b20 <__libc_csu_init>:
    2b20:	f3 0f 1e fb          	endbr32 
    2b24:	55                   	push   %ebp
    2b25:	e8 6b 00 00 00       	call   2b95 <__x86.get_pc_thunk.bp>
    2b2a:	81 c5 46 34 00 00    	add    $0x3446,%ebp
    2b30:	57                   	push   %edi
    2b31:	56                   	push   %esi
    2b32:	53                   	push   %ebx
    2b33:	83 ec 0c             	sub    $0xc,%esp
    2b36:	89 eb                	mov    %ebp,%ebx
    2b38:	8b 7c 24 28          	mov    0x28(%esp),%edi
    2b3c:	e8 bf e4 ff ff       	call   1000 <_init>
    2b41:	8d 9d fc fe ff ff    	lea    -0x104(%ebp),%ebx
    2b47:	8d 85 f8 fe ff ff    	lea    -0x108(%ebp),%eax
    2b4d:	29 c3                	sub    %eax,%ebx
    2b4f:	c1 fb 02             	sar    $0x2,%ebx
    2b52:	74 29                	je     2b7d <__libc_csu_init+0x5d>
    2b54:	31 f6                	xor    %esi,%esi
    2b56:	8d b4 26 00 00 00 00 	lea    0x0(%esi,%eiz,1),%esi
    2b5d:	8d 76 00             	lea    0x0(%esi),%esi
    2b60:	83 ec 04             	sub    $0x4,%esp
    2b63:	57                   	push   %edi
    2b64:	ff 74 24 2c          	pushl  0x2c(%esp)
    2b68:	ff 74 24 2c          	pushl  0x2c(%esp)
    2b6c:	ff 94 b5 f8 fe ff ff 	call   *-0x108(%ebp,%esi,4)
    2b73:	83 c6 01             	add    $0x1,%esi
    2b76:	83 c4 10             	add    $0x10,%esp
    2b79:	39 f3                	cmp    %esi,%ebx
    2b7b:	75 e3                	jne    2b60 <__libc_csu_init+0x40>
    2b7d:	83 c4 0c             	add    $0xc,%esp
    2b80:	5b                   	pop    %ebx
    2b81:	5e                   	pop    %esi
    2b82:	5f                   	pop    %edi
    2b83:	5d                   	pop    %ebp
    2b84:	c3                   	ret    
    2b85:	8d b4 26 00 00 00 00 	lea    0x0(%esi,%eiz,1),%esi
    2b8c:	8d 74 26 00          	lea    0x0(%esi,%eiz,1),%esi

00002b90 <__libc_csu_fini>:
    2b90:	f3 0f 1e fb          	endbr32 
    2b94:	c3                   	ret    

00002b95 <__x86.get_pc_thunk.bp>:
    2b95:	8b 2c 24             	mov    (%esp),%ebp
    2b98:	c3                   	ret    

Disassembly of section .fini:

00002b9c <_fini>:
    2b9c:	f3 0f 1e fb          	endbr32 
    2ba0:	53                   	push   %ebx
    2ba1:	83 ec 08             	sub    $0x8,%esp
    2ba4:	e8 67 e8 ff ff       	call   1410 <__x86.get_pc_thunk.bx>
    2ba9:	81 c3 c7 33 00 00    	add    $0x33c7,%ebx
    2baf:	83 c4 08             	add    $0x8,%esp
    2bb2:	5b                   	pop    %ebx
    2bb3:	c3                   	ret    
